   1              		.cpu arm7tdmi
   2              		.fpu softvfp
   3              		.eabi_attribute 20, 1
   4              		.eabi_attribute 21, 1
   5              		.eabi_attribute 23, 3
   6              		.eabi_attribute 24, 1
   7              		.eabi_attribute 25, 1
   8              		.eabi_attribute 26, 1
   9              		.eabi_attribute 30, 6
  10              		.eabi_attribute 18, 4
  11              		.file	"systemLab4.c"
  21              	.Ltext0:
  22              		.file 1 "../systemLab4.c"
 1682              		.align	2
 1684              	port_init:
 1685              	.LFB0:
   1:../systemLab4.c **** #include <s3c44b0x.h>
   2:../systemLab4.c **** #include "systemLab4.h"    
   3:../systemLab4.c **** 
   4:../systemLab4.c **** static void port_init( void )
   5:../systemLab4.c **** {
 1686              		.loc 1 5 0
 1687              		.cfi_startproc
 1688              		@ Function supports interworking.
 1689              		@ args = 0, pretend = 0, frame = 0
 1690              		@ frame_needed = 1, uses_anonymous_args = 0
 1691 0000 0DC0A0E1 		mov	ip, sp
 1692              	.LCFI0:
 1693              		.cfi_def_cfa_register 12
 1694 0004 00D82DE9 		stmfd	sp!, {fp, ip, lr, pc}
 1695 0008 04B04CE2 		sub	fp, ip, #4
 1696              		.cfi_offset 14, -8
 1697              		.cfi_offset 13, -12
 1698              		.cfi_offset 11, -16
 1699              	.LCFI1:
 1700              		.cfi_def_cfa 11, 4
   6:../systemLab4.c **** 	PDATA = ~0;
 1701              		.loc 1 6 0
 1702 000c 00319FE5 		ldr	r3, .L2
 1703 0010 0020E0E3 		mvn	r2, #0
 1704 0014 002083E5 		str	r2, [r3, #0]
   7:../systemLab4.c **** 	PCONA = 0xFE;
 1705              		.loc 1 7 0
 1706 0018 F8309FE5 		ldr	r3, .L2+4
 1707 001c FE20A0E3 		mov	r2, #254
 1708 0020 002083E5 		str	r2, [r3, #0]
   8:../systemLab4.c **** 
   9:../systemLab4.c **** 	    PDATB = ~0;
 1709              		.loc 1 9 0
 1710 0024 F0309FE5 		ldr	r3, .L2+8
 1711 0028 0020E0E3 		mvn	r2, #0
 1712 002c 002083E5 		str	r2, [r3, #0]
  10:../systemLab4.c **** 	    PCONB = 0x14F;
 1713              		.loc 1 10 0
 1714 0030 E8309FE5 		ldr	r3, .L2+12
 1715 0034 E8209FE5 		ldr	r2, .L2+16
 1716 0038 002083E5 		str	r2, [r3, #0]
  11:../systemLab4.c **** 
  12:../systemLab4.c **** 	    PDATC = ~0;
 1717              		.loc 1 12 0
 1718 003c E4309FE5 		ldr	r3, .L2+20
 1719 0040 0020E0E3 		mvn	r2, #0
 1720 0044 002083E5 		str	r2, [r3, #0]
  13:../systemLab4.c **** 	    PCONC = 0x5FF555FF;
 1721              		.loc 1 13 0
 1722 0048 DC309FE5 		ldr	r3, .L2+24
 1723 004c DC209FE5 		ldr	r2, .L2+28
 1724 0050 002083E5 		str	r2, [r3, #0]
  14:../systemLab4.c **** 	    PUPC  = 0x94FB;
 1725              		.loc 1 14 0
 1726 0054 D8309FE5 		ldr	r3, .L2+32
 1727 0058 D8209FE5 		ldr	r2, .L2+36
 1728 005c 002083E5 		str	r2, [r3, #0]
  15:../systemLab4.c **** 
  16:../systemLab4.c **** 	    PDATD = ~0;
 1729              		.loc 1 16 0
 1730 0060 D4309FE5 		ldr	r3, .L2+40
 1731 0064 0020E0E3 		mvn	r2, #0
 1732 0068 002083E5 		str	r2, [r3, #0]
  17:../systemLab4.c **** 	    PCOND = 0xAAAA;
 1733              		.loc 1 17 0
 1734 006c CC309FE5 		ldr	r3, .L2+44
 1735 0070 CC209FE5 		ldr	r2, .L2+48
 1736 0074 002083E5 		str	r2, [r3, #0]
  18:../systemLab4.c **** 	    PUPD  = 0xFF;
 1737              		.loc 1 18 0
 1738 0078 C8309FE5 		ldr	r3, .L2+52
 1739 007c FF20A0E3 		mov	r2, #255
 1740 0080 002083E5 		str	r2, [r3, #0]
  19:../systemLab4.c **** 
  20:../systemLab4.c **** 	    PDATE = ~0;
 1741              		.loc 1 20 0
 1742 0084 C0309FE5 		ldr	r3, .L2+56
 1743 0088 0020E0E3 		mvn	r2, #0
 1744 008c 002083E5 		str	r2, [r3, #0]
  21:../systemLab4.c **** 	    PCONE = 0x255A9;
 1745              		.loc 1 21 0
 1746 0090 B8309FE5 		ldr	r3, .L2+60
 1747 0094 B8209FE5 		ldr	r2, .L2+64
 1748 0098 002083E5 		str	r2, [r3, #0]
  22:../systemLab4.c **** 	    PUPE  = 0xFB;
 1749              		.loc 1 22 0
 1750 009c B4309FE5 		ldr	r3, .L2+68
 1751 00a0 FB20A0E3 		mov	r2, #251
 1752 00a4 002083E5 		str	r2, [r3, #0]
  23:../systemLab4.c **** 
  24:../systemLab4.c **** 	    PDATF = ~0;
 1753              		.loc 1 24 0
 1754 00a8 AC309FE5 		ldr	r3, .L2+72
 1755 00ac 0020E0E3 		mvn	r2, #0
 1756 00b0 002083E5 		str	r2, [r3, #0]
  25:../systemLab4.c **** 	    PCONF = 0x251A;
 1757              		.loc 1 25 0
 1758 00b4 A4309FE5 		ldr	r3, .L2+76
 1759 00b8 A4209FE5 		ldr	r2, .L2+80
 1760 00bc 002083E5 		str	r2, [r3, #0]
  26:../systemLab4.c **** 	    PUPF  = 0x74;
 1761              		.loc 1 26 0
 1762 00c0 A0309FE5 		ldr	r3, .L2+84
 1763 00c4 7420A0E3 		mov	r2, #116
 1764 00c8 002083E5 		str	r2, [r3, #0]
  27:../systemLab4.c **** 
  28:../systemLab4.c **** 	    PDATG = ~0;
 1765              		.loc 1 28 0
 1766 00cc 98309FE5 		ldr	r3, .L2+88
 1767 00d0 0020E0E3 		mvn	r2, #0
 1768 00d4 002083E5 		str	r2, [r3, #0]
  29:../systemLab4.c **** 	    PCONG = 0xF5FF;
 1769              		.loc 1 29 0
 1770 00d8 90309FE5 		ldr	r3, .L2+92
 1771 00dc 90209FE5 		ldr	r2, .L2+96
 1772 00e0 002083E5 		str	r2, [r3, #0]
  30:../systemLab4.c **** 	    PUPG  = 0x30;
 1773              		.loc 1 30 0
 1774 00e4 8C309FE5 		ldr	r3, .L2+100
 1775 00e8 3020A0E3 		mov	r2, #48
 1776 00ec 002083E5 		str	r2, [r3, #0]
  31:../systemLab4.c **** 
  32:../systemLab4.c **** 	    SPUCR = 0x7;
 1777              		.loc 1 32 0
 1778 00f0 84309FE5 		ldr	r3, .L2+104
 1779 00f4 0720A0E3 		mov	r2, #7
 1780 00f8 002083E5 		str	r2, [r3, #0]
  33:../systemLab4.c **** 
  34:../systemLab4.c **** 	   EXTINT = 0x22000220;
 1781              		.loc 1 34 0
 1782 00fc 7C309FE5 		ldr	r3, .L2+108
 1783 0100 7C209FE5 		ldr	r2, .L2+112
 1784 0104 002083E5 		str	r2, [r3, #0]
  35:../systemLab4.c **** }
 1785              		.loc 1 35 0
 1786 0108 0CD04BE2 		sub	sp, fp, #12
 1787 010c 00689DE8 		ldmfd	sp, {fp, sp, lr}
 1788 0110 1EFF2FE1 		bx	lr
 1789              	.L3:
 1790              		.align	2
 1791              	.L2:
 1792 0114 0400D201 		.word	30539780
 1793 0118 0000D201 		.word	30539776
 1794 011c 0C00D201 		.word	30539788
 1795 0120 0800D201 		.word	30539784
 1796 0124 4F010000 		.word	335
 1797 0128 1400D201 		.word	30539796
 1798 012c 1000D201 		.word	30539792
 1799 0130 FF55F55F 		.word	1609913855
 1800 0134 1800D201 		.word	30539800
 1801 0138 FB940000 		.word	38139
 1802 013c 2000D201 		.word	30539808
 1803 0140 1C00D201 		.word	30539804
 1804 0144 AAAA0000 		.word	43690
 1805 0148 2400D201 		.word	30539812
 1806 014c 2C00D201 		.word	30539820
 1807 0150 2800D201 		.word	30539816
 1808 0154 A9550200 		.word	153001
 1809 0158 3000D201 		.word	30539824
 1810 015c 3800D201 		.word	30539832
 1811 0160 3400D201 		.word	30539828
 1812 0164 1A250000 		.word	9498
 1813 0168 3C00D201 		.word	30539836
 1814 016c 4400D201 		.word	30539844
 1815 0170 4000D201 		.word	30539840
 1816 0174 FFF50000 		.word	62975
 1817 0178 4800D201 		.word	30539848
 1818 017c 4C00D201 		.word	30539852
 1819 0180 5000D201 		.word	30539856
 1820 0184 20020022 		.word	570425888
 1821              		.cfi_endproc
 1822              	.LFE0:
 1824              		.align	2
 1825              		.global	sys_init
 1827              	sys_init:
 1828              	.LFB1:
  36:../systemLab4.c **** 
  37:../systemLab4.c **** void sys_init( void )
  38:../systemLab4.c **** {
 1829              		.loc 1 38 0
 1830              		.cfi_startproc
 1831              		@ Function supports interworking.
 1832              		@ args = 0, pretend = 0, frame = 0
 1833              		@ frame_needed = 1, uses_anonymous_args = 0
 1834 0188 0DC0A0E1 		mov	ip, sp
 1835              	.LCFI2:
 1836              		.cfi_def_cfa_register 12
 1837 018c 00D82DE9 		stmfd	sp!, {fp, ip, lr, pc}
 1838 0190 04B04CE2 		sub	fp, ip, #4
 1839              		.cfi_offset 14, -8
 1840              		.cfi_offset 13, -12
 1841              		.cfi_offset 11, -16
 1842              	.LCFI3:
 1843              		.cfi_def_cfa 11, 4
  39:../systemLab4.c ****     WTCON  = 0;    
 1844              		.loc 1 39 0
 1845 0194 68309FE5 		ldr	r3, .L5
 1846 0198 0020A0E3 		mov	r2, #0
 1847 019c 002083E5 		str	r2, [r3, #0]
  40:../systemLab4.c ****     INTMSK = ~0;
 1848              		.loc 1 40 0
 1849 01a0 60309FE5 		ldr	r3, .L5+4
 1850 01a4 0020E0E3 		mvn	r2, #0
 1851 01a8 002083E5 		str	r2, [r3, #0]
  41:../systemLab4.c **** 
  42:../systemLab4.c ****     LOCKTIME = 0xFFF;
 1852              		.loc 1 42 0
 1853 01ac 58309FE5 		ldr	r3, .L5+8
 1854 01b0 58209FE5 		ldr	r2, .L5+12
 1855 01b4 002083E5 		str	r2, [r3, #0]
  43:../systemLab4.c ****     PLLCON   =  0x38021;
 1856              		.loc 1 43 0
 1857 01b8 7637A0E3 		mov	r3, #30932992
 1858 01bc 50209FE5 		ldr	r2, .L5+16
 1859 01c0 002083E5 		str	r2, [r3, #0]
  44:../systemLab4.c ****     CLKSLOW  = 0x8;
 1860              		.loc 1 44 0
 1861 01c4 4C309FE5 		ldr	r3, .L5+20
 1862 01c8 0820A0E3 		mov	r2, #8
 1863 01cc 002083E5 		str	r2, [r3, #0]
  45:../systemLab4.c ****     CLKCON   =  0x7FF8;
 1864              		.loc 1 45 0
 1865 01d0 44309FE5 		ldr	r3, .L5+24
 1866 01d4 44209FE5 		ldr	r2, .L5+28
 1867 01d8 002083E5 		str	r2, [r3, #0]
  46:../systemLab4.c ****     
  47:../systemLab4.c ****     SBUSCON =  0x8000001B;
 1868              		.loc 1 47 0
 1869 01dc 7137A0E3 		mov	r3, #29622272
 1870 01e0 6E21A0E3 		mov	r2, #-2147483621
 1871 01e4 002083E5 		str	r2, [r3, #0]
  48:../systemLab4.c ****     
  49:../systemLab4.c ****     SYSCFG = 0x0;
 1872              		.loc 1 49 0
 1873 01e8 0735A0E3 		mov	r3, #29360128
 1874 01ec 0020A0E3 		mov	r2, #0
 1875 01f0 002083E5 		str	r2, [r3, #0]
  50:../systemLab4.c ****        
  51:../systemLab4.c ****     port_init();    
 1876              		.loc 1 51 0
 1877 01f4 81FFFFEB 		bl	port_init
  52:../systemLab4.c **** }
 1878              		.loc 1 52 0
 1879 01f8 0CD04BE2 		sub	sp, fp, #12
 1880 01fc 00689DE8 		ldmfd	sp, {fp, sp, lr}
 1881 0200 1EFF2FE1 		bx	lr
 1882              	.L6:
 1883              		.align	2
 1884              	.L5:
 1885 0204 0000D301 		.word	30605312
 1886 0208 0C00E001 		.word	31457292
 1887 020c 0C00D801 		.word	30933004
 1888 0210 FF0F0000 		.word	4095
 1889 0214 21800300 		.word	229409
 1890 0218 0800D801 		.word	30933000
 1891 021c 0400D801 		.word	30932996
 1892 0220 F87F0000 		.word	32760
 1893              		.cfi_endproc
 1894              	.LFE1:
 1896              	.Letext0: