
pr4.elf:     file format elf32-littleriscv
pr4.elf
architecture: riscv:rv32, flags 0x00000112:
EXEC_P, HAS_SYMS, D_PAGED
start address 0x000000fc

Program Header:
    LOAD off    0x00001000 vaddr 0x00000000 paddr 0x00000000 align 2**12
         filesz 0x000010c0 memsz 0x000010c0 flags r-x
    LOAD off    0x00003000 vaddr 0x00010000 paddr 0x00010000 align 2**12
         filesz 0x0000085c memsz 0x00000898 flags rw-

Sections:
Idx Name              Size      VMA       LMA       File off  Algn  Flags
  0 .text             00000e58  00000000  00000000  00001000  2**2  CONTENTS, ALLOC, LOAD, READONLY, CODE
  1 .text.merge       00000268  00000e58  00000e58  00001e58  2**2  CONTENTS, ALLOC, LOAD, READONLY, CODE
  2 .data             00000850  00010000  00010000  00003000  2**3  CONTENTS, ALLOC, LOAD, DATA
  3 .sdata            0000000c  00010850  00010850  00003850  2**2  CONTENTS, ALLOC, LOAD, DATA
  4 .bss              00000028  0001085c  0001085c  0000385c  2**2  ALLOC
  5 .sbss             00000014  00010884  00010884  0000385c  2**2  ALLOC
  6 .riscv.attributes 00000021  00000000  00000000  0000385c  2**0  CONTENTS, READONLY
  7 .comment          00000012  00000000  00000000  0000387d  2**0  CONTENTS, READONLY
  8 .debug_line       000003e2  00000000  00000000  0000388f  2**0  CONTENTS, READONLY, DEBUGGING, OCTETS
  9 .debug_info       000000fc  00000000  00000000  00003c71  2**0  CONTENTS, READONLY, DEBUGGING, OCTETS
 10 .debug_abbrev     000000ab  00000000  00000000  00003d6d  2**0  CONTENTS, READONLY, DEBUGGING, OCTETS
 11 .debug_aranges    00000040  00000000  00000000  00003e18  2**3  CONTENTS, READONLY, DEBUGGING, OCTETS
 12 .debug_str        0000240b  00000000  00000000  00003e58  2**0  CONTENTS, READONLY, DEBUGGING, OCTETS
 13 .debug_ranges     00000010  00000000  00000000  00006263  2**0  CONTENTS, READONLY, DEBUGGING, OCTETS
 14 .debug_macro      000006f9  00000000  00000000  00006273  2**0  CONTENTS, READONLY, DEBUGGING, OCTETS
 15 .debug_frame      00000038  00000000  00000000  0000696c  2**2  CONTENTS, READONLY, DEBUGGING, OCTETS
SYMBOL TABLE:
00000000 l    d  .text	00000000 .text
00000e58 l    d  .text.merge	00000000 .text.merge
00010000 l    d  .data	00000000 .data
00010850 l    d  .sdata	00000000 .sdata
0001085c l    d  .bss	00000000 .bss
00010884 l    d  .sbss	00000000 .sbss
00000000 l    d  .riscv.attributes	00000000 .riscv.attributes
00000000 l    d  .comment	00000000 .comment
00000000 l    d  .debug_line	00000000 .debug_line
00000000 l    d  .debug_info	00000000 .debug_info
00000000 l    d  .debug_abbrev	00000000 .debug_abbrev
00000000 l    d  .debug_aranges	00000000 .debug_aranges
00000000 l    d  .debug_str	00000000 .debug_str
00000000 l    d  .debug_ranges	00000000 .debug_ranges
00000000 l    d  .debug_macro	00000000 .debug_macro
00000000 l    d  .debug_frame	00000000 .debug_frame
00000000 l    df *ABS*	00000000 ./fun_asm.o
00010000 l       .data	00000000 a
0001001c l       .data	00000000 n
0000005c l       .text	00000000 else
00000088 l       .text	00000000 end
00000000 l    df *ABS*	00000000 malloc.c
00000000 l    df *ABS*	00000000 mallocr.c
00000000 l    df *ABS*	00000000 mlock.c
00000000 l    df *ABS*	00000000 sbrkr.c
00000000 l    df *ABS*	00000000 mallocr.c
00000000 l    df *ABS*	00000000 sys_sbrk.c
00010894 l     O .sbss	00000004 heap_end.0
00000000 l    df *ABS*	00000000 errno.c
00000000 l    df *ABS*	00000000 pr4.c
00000000 l    df *ABS*	00000000 impure.c
00010428 l     O .data	00000428 impure_data
00000e58 g     F .text.merge	00000268 merge
000008f4 g     F .text	00000004 __malloc_unlock
00000e4c g     F .text	0000000c __errno
00010890 g     O .sbss	00000004 errno
00000000 g       .text	00000000 merge_sort
000000ac g       .text	00000000 swap
00000118 g     F .text	00000010 malloc
0001088c g     O .sbss	00000004 __malloc_top_pad
000008f8 g     F .text	00000060 _sbrk_r
00010888 g     O .sbss	00000004 __malloc_max_sbrked_mem
00000dac g     F .text	000000a0 _sbrk
00000a98 g     F .text	00000314 _free_r
00010850 g     O .sdata	00000004 __malloc_sbrk_base
0001085c g     O .bss	00000028 __malloc_current_mallinfo
00010020 g     O .data	00000408 __malloc_av_
000008f0 g     F .text	00000004 __malloc_lock
000000fc g       .text	00000000 main
00010884 g     O .sbss	00000004 __malloc_max_total_mem
00000138 g     F .text	000007b8 _malloc_r
00000958 g     F .text	00000140 _malloc_trim_r
00010858 g     O .sdata	00000004 _impure_ptr
00010854 g     O .sdata	00000004 __malloc_trim_threshold
00000128 g     F .text	00000010 free



Disassembly of section .text:

00000000 <merge_sort>:
merge_sort():
C:\Users\Catalina\Documents\Universidad\1-2\FC2\Ensamblador\FC2practicasWS\pr4\Debug/../fun_asm.asm:28
.data
.bss

.text
merge_sort:
	addi sp, sp, -28
   0:	fe410113          	addi	sp,sp,-28
C:\Users\Catalina\Documents\Universidad\1-2\FC2\Ensamblador\FC2practicasWS\pr4\Debug/../fun_asm.asm:29
	sw ra, 24(sp) //
   4:	00112c23          	sw	ra,24(sp)
C:\Users\Catalina\Documents\Universidad\1-2\FC2\Ensamblador\FC2practicasWS\pr4\Debug/../fun_asm.asm:30
	sw s0, 20(sp) //
   8:	00812a23          	sw	s0,20(sp)
C:\Users\Catalina\Documents\Universidad\1-2\FC2\Ensamblador\FC2practicasWS\pr4\Debug/../fun_asm.asm:31
	sw s1, 16(sp) // PRÓLOGO
   c:	00912823          	sw	s1,16(sp)
C:\Users\Catalina\Documents\Universidad\1-2\FC2\Ensamblador\FC2practicasWS\pr4\Debug/../fun_asm.asm:32
	sw s2, 12 (sp) //
  10:	01212623          	sw	s2,12(sp)
C:\Users\Catalina\Documents\Universidad\1-2\FC2\Ensamblador\FC2practicasWS\pr4\Debug/../fun_asm.asm:33
	sw s3, 8 (sp) //
  14:	01312423          	sw	s3,8(sp)
C:\Users\Catalina\Documents\Universidad\1-2\FC2\Ensamblador\FC2practicasWS\pr4\Debug/../fun_asm.asm:34
	sw s4, 4 (sp) //
  18:	01412223          	sw	s4,4(sp)
C:\Users\Catalina\Documents\Universidad\1-2\FC2\Ensamblador\FC2practicasWS\pr4\Debug/../fun_asm.asm:35
	sw s5, 0 (sp)
  1c:	01512023          	sw	s5,0(sp)
C:\Users\Catalina\Documents\Universidad\1-2\FC2\Ensamblador\FC2practicasWS\pr4\Debug/../fun_asm.asm:37

	addi t1, a2, 1		//t1 = l+1
  20:	00160313          	addi	t1,a2,1
C:\Users\Catalina\Documents\Universidad\1-2\FC2\Ensamblador\FC2practicasWS\pr4\Debug/../fun_asm.asm:38
	bne a3, t1, else	//if r !=l+1-> salta
  24:	02669c63          	bne	a3,t1,5c <else>
C:\Users\Catalina\Documents\Universidad\1-2\FC2\Ensamblador\FC2practicasWS\pr4\Debug/../fun_asm.asm:39
	mv t2, a0
  28:	00050393          	mv	t2,a0
C:\Users\Catalina\Documents\Universidad\1-2\FC2\Ensamblador\FC2practicasWS\pr4\Debug/../fun_asm.asm:40
	mv t3, a1
  2c:	00058e13          	mv	t3,a1
C:\Users\Catalina\Documents\Universidad\1-2\FC2\Ensamblador\FC2practicasWS\pr4\Debug/../fun_asm.asm:42

	li s1,0
  30:	00000493          	li	s1,0
C:\Users\Catalina\Documents\Universidad\1-2\FC2\Ensamblador\FC2practicasWS\pr4\Debug/../fun_asm.asm:43
	mv s3, a0			//s3 = dir vector
  34:	00050993          	mv	s3,a0
C:\Users\Catalina\Documents\Universidad\1-2\FC2\Ensamblador\FC2practicasWS\pr4\Debug/../fun_asm.asm:44
	slli s1, a2, 2   	// desplazamiento
  38:	00261493          	slli	s1,a2,0x2
C:\Users\Catalina\Documents\Universidad\1-2\FC2\Ensamblador\FC2practicasWS\pr4\Debug/../fun_asm.asm:45
	add a0, s3, s1  	// a0= &a[l]
  3c:	00998533          	add	a0,s3,s1
C:\Users\Catalina\Documents\Universidad\1-2\FC2\Ensamblador\FC2practicasWS\pr4\Debug/../fun_asm.asm:46
	lw s2, 0(a0)		// s2 = a[l]
  40:	00052903          	lw	s2,0(a0)
C:\Users\Catalina\Documents\Universidad\1-2\FC2\Ensamblador\FC2practicasWS\pr4\Debug/../fun_asm.asm:48

	li s1, 0
  44:	00000493          	li	s1,0
C:\Users\Catalina\Documents\Universidad\1-2\FC2\Ensamblador\FC2practicasWS\pr4\Debug/../fun_asm.asm:49
	slli s1, a3, 2   	// desplazamiento
  48:	00269493          	slli	s1,a3,0x2
C:\Users\Catalina\Documents\Universidad\1-2\FC2\Ensamblador\FC2practicasWS\pr4\Debug/../fun_asm.asm:50
	add a1, s3, s1  	// a1= &a[r]
  4c:	009985b3          	add	a1,s3,s1
C:\Users\Catalina\Documents\Universidad\1-2\FC2\Ensamblador\FC2practicasWS\pr4\Debug/../fun_asm.asm:51
	lw s3, 0(a1)		// s3 = a[r]
  50:	0005a983          	lw	s3,0(a1)
C:\Users\Catalina\Documents\Universidad\1-2\FC2\Ensamblador\FC2practicasWS\pr4\Debug/../fun_asm.asm:53

	bge s3, s2, end			//if2
  54:	0329da63          	bge	s3,s2,88 <end>
C:\Users\Catalina\Documents\Universidad\1-2\FC2\Ensamblador\FC2practicasWS\pr4\Debug/../fun_asm.asm:54
	call swap				//swap
  58:	054000ef          	jal	ra,ac <swap>

0000005c <else>:
else():
C:\Users\Catalina\Documents\Universidad\1-2\FC2\Ensamblador\FC2practicasWS\pr4\Debug/../fun_asm.asm:57

	else:
	li t5, 2
  5c:	00200f13          	li	t5,2
C:\Users\Catalina\Documents\Universidad\1-2\FC2\Ensamblador\FC2practicasWS\pr4\Debug/../fun_asm.asm:59

	div t4, a3, t5
  60:	03e6ceb3          	div	t4,a3,t5
C:\Users\Catalina\Documents\Universidad\1-2\FC2\Ensamblador\FC2practicasWS\pr4\Debug/../fun_asm.asm:60
	add t4, t4, a2
  64:	00ce8eb3          	add	t4,t4,a2
C:\Users\Catalina\Documents\Universidad\1-2\FC2\Ensamblador\FC2practicasWS\pr4\Debug/../fun_asm.asm:61
	mv a3, t4			//operaciones l+r/2 en a3
  68:	000e8693          	mv	a3,t4
C:\Users\Catalina\Documents\Universidad\1-2\FC2\Ensamblador\FC2practicasWS\pr4\Debug/../fun_asm.asm:62
	call merge_sort;
  6c:	f95ff0ef          	jal	ra,0 <merge_sort>
C:\Users\Catalina\Documents\Universidad\1-2\FC2\Ensamblador\FC2practicasWS\pr4\Debug/../fun_asm.asm:65

	//operaciones l+r/2 +1 en a2
	div t4, a3, t5
  70:	03e6ceb3          	div	t4,a3,t5
C:\Users\Catalina\Documents\Universidad\1-2\FC2\Ensamblador\FC2practicasWS\pr4\Debug/../fun_asm.asm:66
	add t4, t4, a2
  74:	00ce8eb3          	add	t4,t4,a2
C:\Users\Catalina\Documents\Universidad\1-2\FC2\Ensamblador\FC2practicasWS\pr4\Debug/../fun_asm.asm:67
	mv a2, t4
  78:	000e8613          	mv	a2,t4
C:\Users\Catalina\Documents\Universidad\1-2\FC2\Ensamblador\FC2practicasWS\pr4\Debug/../fun_asm.asm:70


	mv a1, t3
  7c:	000e0593          	mv	a1,t3
C:\Users\Catalina\Documents\Universidad\1-2\FC2\Ensamblador\FC2practicasWS\pr4\Debug/../fun_asm.asm:71
	call merge_sort;
  80:	f81ff0ef          	jal	ra,0 <merge_sort>
C:\Users\Catalina\Documents\Universidad\1-2\FC2\Ensamblador\FC2practicasWS\pr4\Debug/../fun_asm.asm:73

	call merge;
  84:	5d5000ef          	jal	ra,e58 <merge>

00000088 <end>:
end():
C:\Users\Catalina\Documents\Universidad\1-2\FC2\Ensamblador\FC2practicasWS\pr4\Debug/../fun_asm.asm:75
end:
	lw ra , 24( sp) 	//
  88:	01812083          	lw	ra,24(sp)
C:\Users\Catalina\Documents\Universidad\1-2\FC2\Ensamblador\FC2practicasWS\pr4\Debug/../fun_asm.asm:76
	lw s0 , 20( sp) 	//
  8c:	01412403          	lw	s0,20(sp)
C:\Users\Catalina\Documents\Universidad\1-2\FC2\Ensamblador\FC2practicasWS\pr4\Debug/../fun_asm.asm:77
	lw s1 , 16( sp) 	//
  90:	01012483          	lw	s1,16(sp)
C:\Users\Catalina\Documents\Universidad\1-2\FC2\Ensamblador\FC2practicasWS\pr4\Debug/../fun_asm.asm:78
	lw s2 , 12( sp)		// EPÍLOGO
  94:	00c12903          	lw	s2,12(sp)
C:\Users\Catalina\Documents\Universidad\1-2\FC2\Ensamblador\FC2practicasWS\pr4\Debug/../fun_asm.asm:79
	lw s3 , 8( sp) 		//
  98:	00812983          	lw	s3,8(sp)
C:\Users\Catalina\Documents\Universidad\1-2\FC2\Ensamblador\FC2practicasWS\pr4\Debug/../fun_asm.asm:80
	lw s4 , 4( sp) 		//
  9c:	00412a03          	lw	s4,4(sp)
C:\Users\Catalina\Documents\Universidad\1-2\FC2\Ensamblador\FC2practicasWS\pr4\Debug/../fun_asm.asm:81
	lw s5 , 0( sp) 		//
  a0:	00012a83          	lw	s5,0(sp)
C:\Users\Catalina\Documents\Universidad\1-2\FC2\Ensamblador\FC2practicasWS\pr4\Debug/../fun_asm.asm:82
	addi sp , sp , 28 	//
  a4:	01c10113          	addi	sp,sp,28
C:\Users\Catalina\Documents\Universidad\1-2\FC2\Ensamblador\FC2practicasWS\pr4\Debug/../fun_asm.asm:83
	ret
  a8:	00008067          	ret

000000ac <swap>:
swap():
C:\Users\Catalina\Documents\Universidad\1-2\FC2\Ensamblador\FC2practicasWS\pr4\Debug/../fun_asm.asm:87


swap:
	addi sp, sp, -28
  ac:	fe410113          	addi	sp,sp,-28
C:\Users\Catalina\Documents\Universidad\1-2\FC2\Ensamblador\FC2practicasWS\pr4\Debug/../fun_asm.asm:88
	sw ra, 24(sp) //
  b0:	00112c23          	sw	ra,24(sp)
C:\Users\Catalina\Documents\Universidad\1-2\FC2\Ensamblador\FC2practicasWS\pr4\Debug/../fun_asm.asm:89
	sw s0, 20(sp) //
  b4:	00812a23          	sw	s0,20(sp)
C:\Users\Catalina\Documents\Universidad\1-2\FC2\Ensamblador\FC2practicasWS\pr4\Debug/../fun_asm.asm:90
	sw s1, 16(sp) // PRÓLOGO
  b8:	00912823          	sw	s1,16(sp)
C:\Users\Catalina\Documents\Universidad\1-2\FC2\Ensamblador\FC2practicasWS\pr4\Debug/../fun_asm.asm:91
	sw s2, 12 (sp) //
  bc:	01212623          	sw	s2,12(sp)
C:\Users\Catalina\Documents\Universidad\1-2\FC2\Ensamblador\FC2practicasWS\pr4\Debug/../fun_asm.asm:92
	sw s3, 8 (sp) //
  c0:	01312423          	sw	s3,8(sp)
C:\Users\Catalina\Documents\Universidad\1-2\FC2\Ensamblador\FC2practicasWS\pr4\Debug/../fun_asm.asm:93
	sw s4, 4 (sp) //
  c4:	01412223          	sw	s4,4(sp)
C:\Users\Catalina\Documents\Universidad\1-2\FC2\Ensamblador\FC2practicasWS\pr4\Debug/../fun_asm.asm:94
	sw s5, 0 (sp)
  c8:	01512023          	sw	s5,0(sp)
C:\Users\Catalina\Documents\Universidad\1-2\FC2\Ensamblador\FC2practicasWS\pr4\Debug/../fun_asm.asm:96

	mv a0, t2;
  cc:	00038513          	mv	a0,t2
C:\Users\Catalina\Documents\Universidad\1-2\FC2\Ensamblador\FC2practicasWS\pr4\Debug/../fun_asm.asm:97
	mv a1, a0;
  d0:	00050593          	mv	a1,a0
C:\Users\Catalina\Documents\Universidad\1-2\FC2\Ensamblador\FC2practicasWS\pr4\Debug/../fun_asm.asm:98
	mv t2, a1;
  d4:	00058393          	mv	t2,a1
C:\Users\Catalina\Documents\Universidad\1-2\FC2\Ensamblador\FC2practicasWS\pr4\Debug/../fun_asm.asm:100

	lw ra , 24( sp) 	//
  d8:	01812083          	lw	ra,24(sp)
C:\Users\Catalina\Documents\Universidad\1-2\FC2\Ensamblador\FC2practicasWS\pr4\Debug/../fun_asm.asm:101
	lw s0 , 20( sp) 	//
  dc:	01412403          	lw	s0,20(sp)
C:\Users\Catalina\Documents\Universidad\1-2\FC2\Ensamblador\FC2practicasWS\pr4\Debug/../fun_asm.asm:102
	lw s1 , 16( sp) 	//
  e0:	01012483          	lw	s1,16(sp)
C:\Users\Catalina\Documents\Universidad\1-2\FC2\Ensamblador\FC2practicasWS\pr4\Debug/../fun_asm.asm:103
	lw s2 , 12( sp)		// EPÍLOGO
  e4:	00c12903          	lw	s2,12(sp)
C:\Users\Catalina\Documents\Universidad\1-2\FC2\Ensamblador\FC2practicasWS\pr4\Debug/../fun_asm.asm:104
	lw s3 , 8( sp) 		//
  e8:	00812983          	lw	s3,8(sp)
C:\Users\Catalina\Documents\Universidad\1-2\FC2\Ensamblador\FC2practicasWS\pr4\Debug/../fun_asm.asm:105
	lw s4 , 4( sp) 		//
  ec:	00412a03          	lw	s4,4(sp)
C:\Users\Catalina\Documents\Universidad\1-2\FC2\Ensamblador\FC2practicasWS\pr4\Debug/../fun_asm.asm:106
	lw s5 , 0( sp) 		//
  f0:	00012a83          	lw	s5,0(sp)
C:\Users\Catalina\Documents\Universidad\1-2\FC2\Ensamblador\FC2practicasWS\pr4\Debug/../fun_asm.asm:107
	addi sp , sp , 28 	//
  f4:	01c10113          	addi	sp,sp,28
C:\Users\Catalina\Documents\Universidad\1-2\FC2\Ensamblador\FC2practicasWS\pr4\Debug/../fun_asm.asm:108
	ret
  f8:	00008067          	ret

000000fc <main>:
main():
C:\Users\Catalina\Documents\Universidad\1-2\FC2\Ensamblador\FC2practicasWS\pr4\Debug/../fun_asm.asm:119
    *b = t;
}
*/

main:
	la a0, a
  fc:	00010517          	auipc	a0,0x10
 100:	f0450513          	addi	a0,a0,-252 # 10000 <a>
C:\Users\Catalina\Documents\Universidad\1-2\FC2\Ensamblador\FC2practicasWS\pr4\Debug/../fun_asm.asm:120
	lw a1, n
 104:	00010597          	auipc	a1,0x10
 108:	f185a583          	lw	a1,-232(a1) # 1001c <n>
C:\Users\Catalina\Documents\Universidad\1-2\FC2\Ensamblador\FC2practicasWS\pr4\Debug/../fun_asm.asm:121
	li a2, 0
 10c:	00000613          	li	a2,0
C:\Users\Catalina\Documents\Universidad\1-2\FC2\Ensamblador\FC2practicasWS\pr4\Debug/../fun_asm.asm:122
	addi a3, a1, -1
 110:	fff58693          	addi	a3,a1,-1
C:\Users\Catalina\Documents\Universidad\1-2\FC2\Ensamblador\FC2practicasWS\pr4\Debug/../fun_asm.asm:124

	call merge_sort
 114:	eedff0ef          	jal	ra,0 <merge_sort>

00000118 <malloc>:
malloc():
 118:	000117b7          	lui	a5,0x11
 11c:	00050593          	mv	a1,a0
 120:	8587a503          	lw	a0,-1960(a5) # 10858 <_impure_ptr>
 124:	0140006f          	j	138 <_malloc_r>

00000128 <free>:
free():
 128:	000117b7          	lui	a5,0x11
 12c:	00050593          	mv	a1,a0
 130:	8587a503          	lw	a0,-1960(a5) # 10858 <_impure_ptr>
 134:	1650006f          	j	a98 <_free_r>

00000138 <_malloc_r>:
_malloc_r():
 138:	fd010113          	addi	sp,sp,-48
 13c:	01312e23          	sw	s3,28(sp)
 140:	02112623          	sw	ra,44(sp)
 144:	02812423          	sw	s0,40(sp)
 148:	02912223          	sw	s1,36(sp)
 14c:	03212023          	sw	s2,32(sp)
 150:	01412c23          	sw	s4,24(sp)
 154:	01512a23          	sw	s5,20(sp)
 158:	01612823          	sw	s6,16(sp)
 15c:	01712623          	sw	s7,12(sp)
 160:	01812423          	sw	s8,8(sp)
 164:	01912223          	sw	s9,4(sp)
 168:	00b58793          	addi	a5,a1,11
 16c:	01600713          	li	a4,22
 170:	00050993          	mv	s3,a0
 174:	06f76663          	bltu	a4,a5,1e0 <_malloc_r+0xa8>
 178:	01000793          	li	a5,16
 17c:	1eb7e663          	bltu	a5,a1,368 <_malloc_r+0x230>
 180:	770000ef          	jal	ra,8f0 <__malloc_lock>
 184:	01000493          	li	s1,16
 188:	01800793          	li	a5,24
 18c:	00200613          	li	a2,2
 190:	00010937          	lui	s2,0x10
 194:	02090913          	addi	s2,s2,32 # 10020 <__malloc_av_>
 198:	00f907b3          	add	a5,s2,a5
 19c:	0047a403          	lw	s0,4(a5)
 1a0:	ff878713          	addi	a4,a5,-8
 1a4:	20e40a63          	beq	s0,a4,3b8 <_malloc_r+0x280>
 1a8:	00442783          	lw	a5,4(s0)
 1ac:	00c42683          	lw	a3,12(s0)
 1b0:	00842603          	lw	a2,8(s0)
 1b4:	ffc7f793          	andi	a5,a5,-4
 1b8:	00f407b3          	add	a5,s0,a5
 1bc:	0047a703          	lw	a4,4(a5)
 1c0:	00d62623          	sw	a3,12(a2)
 1c4:	00c6a423          	sw	a2,8(a3)
 1c8:	00176713          	ori	a4,a4,1
 1cc:	00098513          	mv	a0,s3
 1d0:	00e7a223          	sw	a4,4(a5)
 1d4:	720000ef          	jal	ra,8f4 <__malloc_unlock>
 1d8:	00840513          	addi	a0,s0,8
 1dc:	1980006f          	j	374 <_malloc_r+0x23c>
 1e0:	ff87f493          	andi	s1,a5,-8
 1e4:	1807c263          	bltz	a5,368 <_malloc_r+0x230>
 1e8:	18b4e063          	bltu	s1,a1,368 <_malloc_r+0x230>
 1ec:	704000ef          	jal	ra,8f0 <__malloc_lock>
 1f0:	1f700793          	li	a5,503
 1f4:	4697f663          	bgeu	a5,s1,660 <_malloc_r+0x528>
 1f8:	0094d793          	srli	a5,s1,0x9
 1fc:	1a078663          	beqz	a5,3a8 <_malloc_r+0x270>
 200:	00400713          	li	a4,4
 204:	3cf76c63          	bltu	a4,a5,5dc <_malloc_r+0x4a4>
 208:	0064d793          	srli	a5,s1,0x6
 20c:	03978613          	addi	a2,a5,57
 210:	03878513          	addi	a0,a5,56
 214:	00361693          	slli	a3,a2,0x3
 218:	00010937          	lui	s2,0x10
 21c:	02090913          	addi	s2,s2,32 # 10020 <__malloc_av_>
 220:	00d906b3          	add	a3,s2,a3
 224:	0046a403          	lw	s0,4(a3)
 228:	ff868693          	addi	a3,a3,-8
 22c:	02868663          	beq	a3,s0,258 <_malloc_r+0x120>
 230:	00f00593          	li	a1,15
 234:	0100006f          	j	244 <_malloc_r+0x10c>
 238:	32075c63          	bgez	a4,570 <_malloc_r+0x438>
 23c:	00c42403          	lw	s0,12(s0)
 240:	00868c63          	beq	a3,s0,258 <_malloc_r+0x120>
 244:	00442783          	lw	a5,4(s0)
 248:	ffc7f793          	andi	a5,a5,-4
 24c:	40978733          	sub	a4,a5,s1
 250:	fee5d4e3          	bge	a1,a4,238 <_malloc_r+0x100>
 254:	00050613          	mv	a2,a0
 258:	01092403          	lw	s0,16(s2)
 25c:	00890893          	addi	a7,s2,8
 260:	17140863          	beq	s0,a7,3d0 <_malloc_r+0x298>
 264:	00442503          	lw	a0,4(s0)
 268:	00f00693          	li	a3,15
 26c:	ffc57513          	andi	a0,a0,-4
 270:	409507b3          	sub	a5,a0,s1
 274:	40f6cc63          	blt	a3,a5,68c <_malloc_r+0x554>
 278:	01192a23          	sw	a7,20(s2)
 27c:	01192823          	sw	a7,16(s2)
 280:	3e07d663          	bgez	a5,66c <_malloc_r+0x534>
 284:	1ff00793          	li	a5,511
 288:	2ea7ea63          	bltu	a5,a0,57c <_malloc_r+0x444>
 28c:	ff857793          	andi	a5,a0,-8
 290:	00878793          	addi	a5,a5,8
 294:	00492583          	lw	a1,4(s2)
 298:	00f907b3          	add	a5,s2,a5
 29c:	0007a683          	lw	a3,0(a5)
 2a0:	00555513          	srli	a0,a0,0x5
 2a4:	00100713          	li	a4,1
 2a8:	00a71733          	sll	a4,a4,a0
 2ac:	00b76733          	or	a4,a4,a1
 2b0:	ff878593          	addi	a1,a5,-8
 2b4:	00b42623          	sw	a1,12(s0)
 2b8:	00d42423          	sw	a3,8(s0)
 2bc:	00e92223          	sw	a4,4(s2)
 2c0:	0087a023          	sw	s0,0(a5)
 2c4:	0086a623          	sw	s0,12(a3)
 2c8:	40265793          	srai	a5,a2,0x2
 2cc:	00100593          	li	a1,1
 2d0:	00f595b3          	sll	a1,a1,a5
 2d4:	10b76863          	bltu	a4,a1,3e4 <_malloc_r+0x2ac>
 2d8:	00e5f7b3          	and	a5,a1,a4
 2dc:	02079463          	bnez	a5,304 <_malloc_r+0x1cc>
 2e0:	00159593          	slli	a1,a1,0x1
 2e4:	ffc67613          	andi	a2,a2,-4
 2e8:	00e5f7b3          	and	a5,a1,a4
 2ec:	00460613          	addi	a2,a2,4
 2f0:	00079a63          	bnez	a5,304 <_malloc_r+0x1cc>
 2f4:	00159593          	slli	a1,a1,0x1
 2f8:	00e5f7b3          	and	a5,a1,a4
 2fc:	00460613          	addi	a2,a2,4
 300:	fe078ae3          	beqz	a5,2f4 <_malloc_r+0x1bc>
 304:	00f00813          	li	a6,15
 308:	00361313          	slli	t1,a2,0x3
 30c:	00690333          	add	t1,s2,t1
 310:	00030513          	mv	a0,t1
 314:	00c52783          	lw	a5,12(a0)
 318:	00060e13          	mv	t3,a2
 31c:	2ef50263          	beq	a0,a5,600 <_malloc_r+0x4c8>
 320:	0047a703          	lw	a4,4(a5)
 324:	00078413          	mv	s0,a5
 328:	00c7a783          	lw	a5,12(a5)
 32c:	ffc77713          	andi	a4,a4,-4
 330:	409706b3          	sub	a3,a4,s1
 334:	2ed84263          	blt	a6,a3,618 <_malloc_r+0x4e0>
 338:	fe06c2e3          	bltz	a3,31c <_malloc_r+0x1e4>
 33c:	00e40733          	add	a4,s0,a4
 340:	00472683          	lw	a3,4(a4)
 344:	00842603          	lw	a2,8(s0)
 348:	00098513          	mv	a0,s3
 34c:	0016e693          	ori	a3,a3,1
 350:	00d72223          	sw	a3,4(a4)
 354:	00f62623          	sw	a5,12(a2)
 358:	00c7a423          	sw	a2,8(a5)
 35c:	598000ef          	jal	ra,8f4 <__malloc_unlock>
 360:	00840513          	addi	a0,s0,8
 364:	0100006f          	j	374 <_malloc_r+0x23c>
 368:	00c00793          	li	a5,12
 36c:	00f9a023          	sw	a5,0(s3)
 370:	00000513          	li	a0,0
 374:	02c12083          	lw	ra,44(sp)
 378:	02812403          	lw	s0,40(sp)
 37c:	02412483          	lw	s1,36(sp)
 380:	02012903          	lw	s2,32(sp)
 384:	01c12983          	lw	s3,28(sp)
 388:	01812a03          	lw	s4,24(sp)
 38c:	01412a83          	lw	s5,20(sp)
 390:	01012b03          	lw	s6,16(sp)
 394:	00c12b83          	lw	s7,12(sp)
 398:	00812c03          	lw	s8,8(sp)
 39c:	00412c83          	lw	s9,4(sp)
 3a0:	03010113          	addi	sp,sp,48
 3a4:	00008067          	ret
 3a8:	20000693          	li	a3,512
 3ac:	04000613          	li	a2,64
 3b0:	03f00513          	li	a0,63
 3b4:	e65ff06f          	j	218 <_malloc_r+0xe0>
 3b8:	00c7a403          	lw	s0,12(a5)
 3bc:	00260613          	addi	a2,a2,2
 3c0:	de8794e3          	bne	a5,s0,1a8 <_malloc_r+0x70>
 3c4:	01092403          	lw	s0,16(s2)
 3c8:	00890893          	addi	a7,s2,8
 3cc:	e9141ce3          	bne	s0,a7,264 <_malloc_r+0x12c>
 3d0:	00492703          	lw	a4,4(s2)
 3d4:	40265793          	srai	a5,a2,0x2
 3d8:	00100593          	li	a1,1
 3dc:	00f595b3          	sll	a1,a1,a5
 3e0:	eeb77ce3          	bgeu	a4,a1,2d8 <_malloc_r+0x1a0>
 3e4:	00892403          	lw	s0,8(s2)
 3e8:	00442a83          	lw	s5,4(s0)
 3ec:	ffcafb13          	andi	s6,s5,-4
 3f0:	009b6863          	bltu	s6,s1,400 <_malloc_r+0x2c8>
 3f4:	409b07b3          	sub	a5,s6,s1
 3f8:	00f00713          	li	a4,15
 3fc:	14f74663          	blt	a4,a5,548 <_malloc_r+0x410>
 400:	000117b7          	lui	a5,0x11
 404:	00011cb7          	lui	s9,0x11
 408:	88c7aa83          	lw	s5,-1908(a5) # 1088c <__malloc_top_pad>
 40c:	850ca703          	lw	a4,-1968(s9) # 10850 <__malloc_sbrk_base>
 410:	fff00793          	li	a5,-1
 414:	01640a33          	add	s4,s0,s6
 418:	01548ab3          	add	s5,s1,s5
 41c:	34f70a63          	beq	a4,a5,770 <_malloc_r+0x638>
 420:	000017b7          	lui	a5,0x1
 424:	00f78793          	addi	a5,a5,15 # 100f <merge+0x1b7>
 428:	00fa8ab3          	add	s5,s5,a5
 42c:	fffff7b7          	lui	a5,0xfffff
 430:	00fafab3          	and	s5,s5,a5
 434:	000a8593          	mv	a1,s5
 438:	00098513          	mv	a0,s3
 43c:	4bc000ef          	jal	ra,8f8 <_sbrk_r>
 440:	fff00793          	li	a5,-1
 444:	00050b93          	mv	s7,a0
 448:	28f50c63          	beq	a0,a5,6e0 <_malloc_r+0x5a8>
 44c:	29456863          	bltu	a0,s4,6dc <_malloc_r+0x5a4>
 450:	00011c37          	lui	s8,0x11
 454:	85cc0c13          	addi	s8,s8,-1956 # 1085c <__malloc_current_mallinfo>
 458:	000c2583          	lw	a1,0(s8)
 45c:	00ba85b3          	add	a1,s5,a1
 460:	00bc2023          	sw	a1,0(s8)
 464:	00058793          	mv	a5,a1
 468:	3aaa0463          	beq	s4,a0,810 <_malloc_r+0x6d8>
 46c:	850ca683          	lw	a3,-1968(s9)
 470:	fff00713          	li	a4,-1
 474:	3ae68c63          	beq	a3,a4,82c <_malloc_r+0x6f4>
 478:	414b8a33          	sub	s4,s7,s4
 47c:	00fa07b3          	add	a5,s4,a5
 480:	00fc2023          	sw	a5,0(s8)
 484:	007bfc93          	andi	s9,s7,7
 488:	300c8663          	beqz	s9,794 <_malloc_r+0x65c>
 48c:	000017b7          	lui	a5,0x1
 490:	419b8bb3          	sub	s7,s7,s9
 494:	00878593          	addi	a1,a5,8 # 1008 <merge+0x1b0>
 498:	008b8b93          	addi	s7,s7,8
 49c:	419585b3          	sub	a1,a1,s9
 4a0:	015b8ab3          	add	s5,s7,s5
 4a4:	fff78793          	addi	a5,a5,-1
 4a8:	415585b3          	sub	a1,a1,s5
 4ac:	00f5fa33          	and	s4,a1,a5
 4b0:	000a0593          	mv	a1,s4
 4b4:	00098513          	mv	a0,s3
 4b8:	440000ef          	jal	ra,8f8 <_sbrk_r>
 4bc:	fff00793          	li	a5,-1
 4c0:	3cf50063          	beq	a0,a5,880 <_malloc_r+0x748>
 4c4:	41750533          	sub	a0,a0,s7
 4c8:	01450ab3          	add	s5,a0,s4
 4cc:	000c2583          	lw	a1,0(s8)
 4d0:	01792423          	sw	s7,8(s2)
 4d4:	001aea93          	ori	s5,s5,1
 4d8:	00ba05b3          	add	a1,s4,a1
 4dc:	00bc2023          	sw	a1,0(s8)
 4e0:	015ba223          	sw	s5,4(s7)
 4e4:	35240863          	beq	s0,s2,834 <_malloc_r+0x6fc>
 4e8:	00f00693          	li	a3,15
 4ec:	3566f863          	bgeu	a3,s6,83c <_malloc_r+0x704>
 4f0:	00442703          	lw	a4,4(s0)
 4f4:	ff4b0793          	addi	a5,s6,-12
 4f8:	ff87f793          	andi	a5,a5,-8
 4fc:	00177713          	andi	a4,a4,1
 500:	00f76733          	or	a4,a4,a5
 504:	00e42223          	sw	a4,4(s0)
 508:	00500613          	li	a2,5
 50c:	00f40733          	add	a4,s0,a5
 510:	00c72223          	sw	a2,4(a4)
 514:	00c72423          	sw	a2,8(a4)
 518:	36f6ee63          	bltu	a3,a5,894 <_malloc_r+0x75c>
 51c:	004baa83          	lw	s5,4(s7)
 520:	000b8413          	mv	s0,s7
 524:	000117b7          	lui	a5,0x11
 528:	8887a703          	lw	a4,-1912(a5) # 10888 <__malloc_max_sbrked_mem>
 52c:	00b77463          	bgeu	a4,a1,534 <_malloc_r+0x3fc>
 530:	88b7a423          	sw	a1,-1912(a5)
 534:	000117b7          	lui	a5,0x11
 538:	8847a703          	lw	a4,-1916(a5) # 10884 <__malloc_max_total_mem>
 53c:	1ab77663          	bgeu	a4,a1,6e8 <_malloc_r+0x5b0>
 540:	88b7a223          	sw	a1,-1916(a5)
 544:	1a40006f          	j	6e8 <_malloc_r+0x5b0>
 548:	0014e713          	ori	a4,s1,1
 54c:	00e42223          	sw	a4,4(s0)
 550:	009404b3          	add	s1,s0,s1
 554:	00992423          	sw	s1,8(s2)
 558:	0017e793          	ori	a5,a5,1
 55c:	00098513          	mv	a0,s3
 560:	00f4a223          	sw	a5,4(s1)
 564:	390000ef          	jal	ra,8f4 <__malloc_unlock>
 568:	00840513          	addi	a0,s0,8
 56c:	e09ff06f          	j	374 <_malloc_r+0x23c>
 570:	00c42683          	lw	a3,12(s0)
 574:	00842603          	lw	a2,8(s0)
 578:	c41ff06f          	j	1b8 <_malloc_r+0x80>
 57c:	00955793          	srli	a5,a0,0x9
 580:	00400713          	li	a4,4
 584:	14f77263          	bgeu	a4,a5,6c8 <_malloc_r+0x590>
 588:	01400713          	li	a4,20
 58c:	22f76a63          	bltu	a4,a5,7c0 <_malloc_r+0x688>
 590:	05c78693          	addi	a3,a5,92
 594:	05b78593          	addi	a1,a5,91
 598:	00369693          	slli	a3,a3,0x3
 59c:	00d906b3          	add	a3,s2,a3
 5a0:	0006a783          	lw	a5,0(a3)
 5a4:	ff868693          	addi	a3,a3,-8
 5a8:	1cf68863          	beq	a3,a5,778 <_malloc_r+0x640>
 5ac:	0047a703          	lw	a4,4(a5)
 5b0:	ffc77713          	andi	a4,a4,-4
 5b4:	00e57663          	bgeu	a0,a4,5c0 <_malloc_r+0x488>
 5b8:	0087a783          	lw	a5,8(a5)
 5bc:	fef698e3          	bne	a3,a5,5ac <_malloc_r+0x474>
 5c0:	00c7a683          	lw	a3,12(a5)
 5c4:	00492703          	lw	a4,4(s2)
 5c8:	00d42623          	sw	a3,12(s0)
 5cc:	00f42423          	sw	a5,8(s0)
 5d0:	0086a423          	sw	s0,8(a3)
 5d4:	0087a623          	sw	s0,12(a5)
 5d8:	cf1ff06f          	j	2c8 <_malloc_r+0x190>
 5dc:	01400713          	li	a4,20
 5e0:	12f77663          	bgeu	a4,a5,70c <_malloc_r+0x5d4>
 5e4:	05400713          	li	a4,84
 5e8:	1ef76a63          	bltu	a4,a5,7dc <_malloc_r+0x6a4>
 5ec:	00c4d793          	srli	a5,s1,0xc
 5f0:	06f78613          	addi	a2,a5,111
 5f4:	06e78513          	addi	a0,a5,110
 5f8:	00361693          	slli	a3,a2,0x3
 5fc:	c1dff06f          	j	218 <_malloc_r+0xe0>
 600:	001e0e13          	addi	t3,t3,1
 604:	003e7793          	andi	a5,t3,3
 608:	00850513          	addi	a0,a0,8
 60c:	10078e63          	beqz	a5,728 <_malloc_r+0x5f0>
 610:	00c52783          	lw	a5,12(a0)
 614:	d09ff06f          	j	31c <_malloc_r+0x1e4>
 618:	00842603          	lw	a2,8(s0)
 61c:	0014e593          	ori	a1,s1,1
 620:	00b42223          	sw	a1,4(s0)
 624:	00f62623          	sw	a5,12(a2)
 628:	00c7a423          	sw	a2,8(a5)
 62c:	009404b3          	add	s1,s0,s1
 630:	00992a23          	sw	s1,20(s2)
 634:	00992823          	sw	s1,16(s2)
 638:	0016e793          	ori	a5,a3,1
 63c:	0114a623          	sw	a7,12(s1)
 640:	0114a423          	sw	a7,8(s1)
 644:	00f4a223          	sw	a5,4(s1)
 648:	00e40733          	add	a4,s0,a4
 64c:	00098513          	mv	a0,s3
 650:	00d72023          	sw	a3,0(a4)
 654:	2a0000ef          	jal	ra,8f4 <__malloc_unlock>
 658:	00840513          	addi	a0,s0,8
 65c:	d19ff06f          	j	374 <_malloc_r+0x23c>
 660:	0034d613          	srli	a2,s1,0x3
 664:	00848793          	addi	a5,s1,8
 668:	b29ff06f          	j	190 <_malloc_r+0x58>
 66c:	00a40733          	add	a4,s0,a0
 670:	00472783          	lw	a5,4(a4)
 674:	00098513          	mv	a0,s3
 678:	0017e793          	ori	a5,a5,1
 67c:	00f72223          	sw	a5,4(a4)
 680:	274000ef          	jal	ra,8f4 <__malloc_unlock>
 684:	00840513          	addi	a0,s0,8
 688:	cedff06f          	j	374 <_malloc_r+0x23c>
 68c:	0014e713          	ori	a4,s1,1
 690:	00e42223          	sw	a4,4(s0)
 694:	009404b3          	add	s1,s0,s1
 698:	00992a23          	sw	s1,20(s2)
 69c:	00992823          	sw	s1,16(s2)
 6a0:	0017e713          	ori	a4,a5,1
 6a4:	0114a623          	sw	a7,12(s1)
 6a8:	0114a423          	sw	a7,8(s1)
 6ac:	00e4a223          	sw	a4,4(s1)
 6b0:	00a40533          	add	a0,s0,a0
 6b4:	00f52023          	sw	a5,0(a0)
 6b8:	00098513          	mv	a0,s3
 6bc:	238000ef          	jal	ra,8f4 <__malloc_unlock>
 6c0:	00840513          	addi	a0,s0,8
 6c4:	cb1ff06f          	j	374 <_malloc_r+0x23c>
 6c8:	00655793          	srli	a5,a0,0x6
 6cc:	03978693          	addi	a3,a5,57
 6d0:	03878593          	addi	a1,a5,56
 6d4:	00369693          	slli	a3,a3,0x3
 6d8:	ec5ff06f          	j	59c <_malloc_r+0x464>
 6dc:	11240e63          	beq	s0,s2,7f8 <_malloc_r+0x6c0>
 6e0:	00892403          	lw	s0,8(s2)
 6e4:	00442a83          	lw	s5,4(s0)
 6e8:	ffcafa93          	andi	s5,s5,-4
 6ec:	409a87b3          	sub	a5,s5,s1
 6f0:	009ae663          	bltu	s5,s1,6fc <_malloc_r+0x5c4>
 6f4:	00f00713          	li	a4,15
 6f8:	e4f748e3          	blt	a4,a5,548 <_malloc_r+0x410>
 6fc:	00098513          	mv	a0,s3
 700:	1f4000ef          	jal	ra,8f4 <__malloc_unlock>
 704:	00000513          	li	a0,0
 708:	c6dff06f          	j	374 <_malloc_r+0x23c>
 70c:	05c78613          	addi	a2,a5,92
 710:	05b78513          	addi	a0,a5,91
 714:	00361693          	slli	a3,a2,0x3
 718:	b01ff06f          	j	218 <_malloc_r+0xe0>
 71c:	00832783          	lw	a5,8(t1)
 720:	fff60613          	addi	a2,a2,-1
 724:	1c679263          	bne	a5,t1,8e8 <_malloc_r+0x7b0>
 728:	00367793          	andi	a5,a2,3
 72c:	ff830313          	addi	t1,t1,-8
 730:	fe0796e3          	bnez	a5,71c <_malloc_r+0x5e4>
 734:	00492703          	lw	a4,4(s2)
 738:	fff5c793          	not	a5,a1
 73c:	00e7f7b3          	and	a5,a5,a4
 740:	00f92223          	sw	a5,4(s2)
 744:	00159593          	slli	a1,a1,0x1
 748:	c8b7eee3          	bltu	a5,a1,3e4 <_malloc_r+0x2ac>
 74c:	c8058ce3          	beqz	a1,3e4 <_malloc_r+0x2ac>
 750:	00f5f733          	and	a4,a1,a5
 754:	00071a63          	bnez	a4,768 <_malloc_r+0x630>
 758:	00159593          	slli	a1,a1,0x1
 75c:	00f5f733          	and	a4,a1,a5
 760:	004e0e13          	addi	t3,t3,4
 764:	fe070ae3          	beqz	a4,758 <_malloc_r+0x620>
 768:	000e0613          	mv	a2,t3
 76c:	b9dff06f          	j	308 <_malloc_r+0x1d0>
 770:	010a8a93          	addi	s5,s5,16
 774:	cc1ff06f          	j	434 <_malloc_r+0x2fc>
 778:	00492503          	lw	a0,4(s2)
 77c:	4025d593          	srai	a1,a1,0x2
 780:	00100713          	li	a4,1
 784:	00b71733          	sll	a4,a4,a1
 788:	00a76733          	or	a4,a4,a0
 78c:	00e92223          	sw	a4,4(s2)
 790:	e39ff06f          	j	5c8 <_malloc_r+0x490>
 794:	015b85b3          	add	a1,s7,s5
 798:	40b005b3          	neg	a1,a1
 79c:	01459593          	slli	a1,a1,0x14
 7a0:	0145da13          	srli	s4,a1,0x14
 7a4:	000a0593          	mv	a1,s4
 7a8:	00098513          	mv	a0,s3
 7ac:	14c000ef          	jal	ra,8f8 <_sbrk_r>
 7b0:	fff00793          	li	a5,-1
 7b4:	d0f518e3          	bne	a0,a5,4c4 <_malloc_r+0x38c>
 7b8:	00000a13          	li	s4,0
 7bc:	d11ff06f          	j	4cc <_malloc_r+0x394>
 7c0:	05400713          	li	a4,84
 7c4:	08f76263          	bltu	a4,a5,848 <_malloc_r+0x710>
 7c8:	00c55793          	srli	a5,a0,0xc
 7cc:	06f78693          	addi	a3,a5,111
 7d0:	06e78593          	addi	a1,a5,110
 7d4:	00369693          	slli	a3,a3,0x3
 7d8:	dc5ff06f          	j	59c <_malloc_r+0x464>
 7dc:	15400713          	li	a4,340
 7e0:	08f76263          	bltu	a4,a5,864 <_malloc_r+0x72c>
 7e4:	00f4d793          	srli	a5,s1,0xf
 7e8:	07878613          	addi	a2,a5,120
 7ec:	07778513          	addi	a0,a5,119
 7f0:	00361693          	slli	a3,a2,0x3
 7f4:	a25ff06f          	j	218 <_malloc_r+0xe0>
 7f8:	00011c37          	lui	s8,0x11
 7fc:	85cc0c13          	addi	s8,s8,-1956 # 1085c <__malloc_current_mallinfo>
 800:	000c2783          	lw	a5,0(s8)
 804:	00fa87b3          	add	a5,s5,a5
 808:	00fc2023          	sw	a5,0(s8)
 80c:	c61ff06f          	j	46c <_malloc_r+0x334>
 810:	014a1713          	slli	a4,s4,0x14
 814:	c4071ce3          	bnez	a4,46c <_malloc_r+0x334>
 818:	00892403          	lw	s0,8(s2)
 81c:	015b0ab3          	add	s5,s6,s5
 820:	001aea93          	ori	s5,s5,1
 824:	01542223          	sw	s5,4(s0)
 828:	cfdff06f          	j	524 <_malloc_r+0x3ec>
 82c:	857ca823          	sw	s7,-1968(s9)
 830:	c55ff06f          	j	484 <_malloc_r+0x34c>
 834:	000b8413          	mv	s0,s7
 838:	cedff06f          	j	524 <_malloc_r+0x3ec>
 83c:	00100793          	li	a5,1
 840:	00fba223          	sw	a5,4(s7)
 844:	eb9ff06f          	j	6fc <_malloc_r+0x5c4>
 848:	15400713          	li	a4,340
 84c:	06f76263          	bltu	a4,a5,8b0 <_malloc_r+0x778>
 850:	00f55793          	srli	a5,a0,0xf
 854:	07878693          	addi	a3,a5,120
 858:	07778593          	addi	a1,a5,119
 85c:	00369693          	slli	a3,a3,0x3
 860:	d3dff06f          	j	59c <_malloc_r+0x464>
 864:	55400713          	li	a4,1364
 868:	06f76263          	bltu	a4,a5,8cc <_malloc_r+0x794>
 86c:	0124d793          	srli	a5,s1,0x12
 870:	07d78613          	addi	a2,a5,125
 874:	07c78513          	addi	a0,a5,124
 878:	00361693          	slli	a3,a2,0x3
 87c:	99dff06f          	j	218 <_malloc_r+0xe0>
 880:	ff8c8c93          	addi	s9,s9,-8
 884:	019a8ab3          	add	s5,s5,s9
 888:	417a8ab3          	sub	s5,s5,s7
 88c:	00000a13          	li	s4,0
 890:	c3dff06f          	j	4cc <_malloc_r+0x394>
 894:	00840593          	addi	a1,s0,8
 898:	00098513          	mv	a0,s3
 89c:	1fc000ef          	jal	ra,a98 <_free_r>
 8a0:	00892403          	lw	s0,8(s2)
 8a4:	000c2583          	lw	a1,0(s8)
 8a8:	00442a83          	lw	s5,4(s0)
 8ac:	c79ff06f          	j	524 <_malloc_r+0x3ec>
 8b0:	55400713          	li	a4,1364
 8b4:	02f76463          	bltu	a4,a5,8dc <_malloc_r+0x7a4>
 8b8:	01255793          	srli	a5,a0,0x12
 8bc:	07d78693          	addi	a3,a5,125
 8c0:	07c78593          	addi	a1,a5,124
 8c4:	00369693          	slli	a3,a3,0x3
 8c8:	cd5ff06f          	j	59c <_malloc_r+0x464>
 8cc:	3f800693          	li	a3,1016
 8d0:	07f00613          	li	a2,127
 8d4:	07e00513          	li	a0,126
 8d8:	941ff06f          	j	218 <_malloc_r+0xe0>
 8dc:	3f800693          	li	a3,1016
 8e0:	07e00593          	li	a1,126
 8e4:	cb9ff06f          	j	59c <_malloc_r+0x464>
 8e8:	00492783          	lw	a5,4(s2)
 8ec:	e59ff06f          	j	744 <_malloc_r+0x60c>

000008f0 <__malloc_lock>:
__malloc_lock():
 8f0:	00008067          	ret

000008f4 <__malloc_unlock>:
__malloc_unlock():
 8f4:	00008067          	ret

000008f8 <_sbrk_r>:
_sbrk_r():
 8f8:	ff010113          	addi	sp,sp,-16
 8fc:	00812423          	sw	s0,8(sp)
 900:	00912223          	sw	s1,4(sp)
 904:	00050413          	mv	s0,a0
 908:	000114b7          	lui	s1,0x11
 90c:	00058513          	mv	a0,a1
 910:	00112623          	sw	ra,12(sp)
 914:	8804a823          	sw	zero,-1904(s1) # 10890 <errno>
 918:	494000ef          	jal	ra,dac <_sbrk>
 91c:	fff00793          	li	a5,-1
 920:	00f50c63          	beq	a0,a5,938 <_sbrk_r+0x40>
 924:	00c12083          	lw	ra,12(sp)
 928:	00812403          	lw	s0,8(sp)
 92c:	00412483          	lw	s1,4(sp)
 930:	01010113          	addi	sp,sp,16
 934:	00008067          	ret
 938:	8904a783          	lw	a5,-1904(s1)
 93c:	fe0784e3          	beqz	a5,924 <_sbrk_r+0x2c>
 940:	00c12083          	lw	ra,12(sp)
 944:	00f42023          	sw	a5,0(s0)
 948:	00812403          	lw	s0,8(sp)
 94c:	00412483          	lw	s1,4(sp)
 950:	01010113          	addi	sp,sp,16
 954:	00008067          	ret

00000958 <_malloc_trim_r>:
_malloc_trim_r():
 958:	fe010113          	addi	sp,sp,-32
 95c:	01312623          	sw	s3,12(sp)
 960:	000109b7          	lui	s3,0x10
 964:	00812c23          	sw	s0,24(sp)
 968:	00912a23          	sw	s1,20(sp)
 96c:	01212823          	sw	s2,16(sp)
 970:	01412423          	sw	s4,8(sp)
 974:	00112e23          	sw	ra,28(sp)
 978:	00058a13          	mv	s4,a1
 97c:	00050913          	mv	s2,a0
 980:	02098993          	addi	s3,s3,32 # 10020 <__malloc_av_>
 984:	f6dff0ef          	jal	ra,8f0 <__malloc_lock>
 988:	0089a703          	lw	a4,8(s3)
 98c:	000017b7          	lui	a5,0x1
 990:	fef78413          	addi	s0,a5,-17 # fef <merge+0x197>
 994:	00472483          	lw	s1,4(a4)
 998:	41440433          	sub	s0,s0,s4
 99c:	ffc4f493          	andi	s1,s1,-4
 9a0:	00940433          	add	s0,s0,s1
 9a4:	00c45413          	srli	s0,s0,0xc
 9a8:	fff40413          	addi	s0,s0,-1
 9ac:	00c41413          	slli	s0,s0,0xc
 9b0:	00f44e63          	blt	s0,a5,9cc <_malloc_trim_r+0x74>
 9b4:	00000593          	li	a1,0
 9b8:	00090513          	mv	a0,s2
 9bc:	f3dff0ef          	jal	ra,8f8 <_sbrk_r>
 9c0:	0089a783          	lw	a5,8(s3)
 9c4:	009787b3          	add	a5,a5,s1
 9c8:	02f50863          	beq	a0,a5,9f8 <_malloc_trim_r+0xa0>
 9cc:	00090513          	mv	a0,s2
 9d0:	f25ff0ef          	jal	ra,8f4 <__malloc_unlock>
 9d4:	01c12083          	lw	ra,28(sp)
 9d8:	01812403          	lw	s0,24(sp)
 9dc:	01412483          	lw	s1,20(sp)
 9e0:	01012903          	lw	s2,16(sp)
 9e4:	00c12983          	lw	s3,12(sp)
 9e8:	00812a03          	lw	s4,8(sp)
 9ec:	00000513          	li	a0,0
 9f0:	02010113          	addi	sp,sp,32
 9f4:	00008067          	ret
 9f8:	408005b3          	neg	a1,s0
 9fc:	00090513          	mv	a0,s2
 a00:	ef9ff0ef          	jal	ra,8f8 <_sbrk_r>
 a04:	fff00793          	li	a5,-1
 a08:	04f50a63          	beq	a0,a5,a5c <_malloc_trim_r+0x104>
 a0c:	000117b7          	lui	a5,0x11
 a10:	85c78793          	addi	a5,a5,-1956 # 1085c <__malloc_current_mallinfo>
 a14:	0007a703          	lw	a4,0(a5)
 a18:	0089a683          	lw	a3,8(s3)
 a1c:	408484b3          	sub	s1,s1,s0
 a20:	0014e493          	ori	s1,s1,1
 a24:	40870433          	sub	s0,a4,s0
 a28:	00090513          	mv	a0,s2
 a2c:	0096a223          	sw	s1,4(a3)
 a30:	0087a023          	sw	s0,0(a5)
 a34:	ec1ff0ef          	jal	ra,8f4 <__malloc_unlock>
 a38:	01c12083          	lw	ra,28(sp)
 a3c:	01812403          	lw	s0,24(sp)
 a40:	01412483          	lw	s1,20(sp)
 a44:	01012903          	lw	s2,16(sp)
 a48:	00c12983          	lw	s3,12(sp)
 a4c:	00812a03          	lw	s4,8(sp)
 a50:	00100513          	li	a0,1
 a54:	02010113          	addi	sp,sp,32
 a58:	00008067          	ret
 a5c:	00000593          	li	a1,0
 a60:	00090513          	mv	a0,s2
 a64:	e95ff0ef          	jal	ra,8f8 <_sbrk_r>
 a68:	0089a703          	lw	a4,8(s3)
 a6c:	00f00693          	li	a3,15
 a70:	40e507b3          	sub	a5,a0,a4
 a74:	f4f6dce3          	bge	a3,a5,9cc <_malloc_trim_r+0x74>
 a78:	000116b7          	lui	a3,0x11
 a7c:	8506a683          	lw	a3,-1968(a3) # 10850 <__malloc_sbrk_base>
 a80:	0017e793          	ori	a5,a5,1
 a84:	00f72223          	sw	a5,4(a4)
 a88:	40d50533          	sub	a0,a0,a3
 a8c:	000116b7          	lui	a3,0x11
 a90:	84a6ae23          	sw	a0,-1956(a3) # 1085c <__malloc_current_mallinfo>
 a94:	f39ff06f          	j	9cc <_malloc_trim_r+0x74>

00000a98 <_free_r>:
_free_r():
 a98:	12058a63          	beqz	a1,bcc <_free_r+0x134>
 a9c:	ff010113          	addi	sp,sp,-16
 aa0:	00812423          	sw	s0,8(sp)
 aa4:	00912223          	sw	s1,4(sp)
 aa8:	00058413          	mv	s0,a1
 aac:	00050493          	mv	s1,a0
 ab0:	00112623          	sw	ra,12(sp)
 ab4:	e3dff0ef          	jal	ra,8f0 <__malloc_lock>
 ab8:	ffc42803          	lw	a6,-4(s0)
 abc:	ff840713          	addi	a4,s0,-8
 ac0:	000105b7          	lui	a1,0x10
 ac4:	ffe87793          	andi	a5,a6,-2
 ac8:	00f70633          	add	a2,a4,a5
 acc:	02058593          	addi	a1,a1,32 # 10020 <__malloc_av_>
 ad0:	00462683          	lw	a3,4(a2)
 ad4:	0085a503          	lw	a0,8(a1)
 ad8:	ffc6f693          	andi	a3,a3,-4
 adc:	1ac50a63          	beq	a0,a2,c90 <_free_r+0x1f8>
 ae0:	00d62223          	sw	a3,4(a2)
 ae4:	00187813          	andi	a6,a6,1
 ae8:	00d60533          	add	a0,a2,a3
 aec:	0a081063          	bnez	a6,b8c <_free_r+0xf4>
 af0:	ff842303          	lw	t1,-8(s0)
 af4:	00452803          	lw	a6,4(a0)
 af8:	00010537          	lui	a0,0x10
 afc:	40670733          	sub	a4,a4,t1
 b00:	00872883          	lw	a7,8(a4)
 b04:	02850513          	addi	a0,a0,40 # 10028 <__malloc_av_+0x8>
 b08:	006787b3          	add	a5,a5,t1
 b0c:	00187813          	andi	a6,a6,1
 b10:	14a88063          	beq	a7,a0,c50 <_free_r+0x1b8>
 b14:	00c72303          	lw	t1,12(a4)
 b18:	0068a623          	sw	t1,12(a7)
 b1c:	01132423          	sw	a7,8(t1)
 b20:	1e080463          	beqz	a6,d08 <_free_r+0x270>
 b24:	0017e693          	ori	a3,a5,1
 b28:	00d72223          	sw	a3,4(a4)
 b2c:	00f62023          	sw	a5,0(a2)
 b30:	1ff00693          	li	a3,511
 b34:	0af6e863          	bltu	a3,a5,be4 <_free_r+0x14c>
 b38:	ff87f693          	andi	a3,a5,-8
 b3c:	00868693          	addi	a3,a3,8
 b40:	0045a503          	lw	a0,4(a1)
 b44:	00d586b3          	add	a3,a1,a3
 b48:	0006a603          	lw	a2,0(a3)
 b4c:	0057d813          	srli	a6,a5,0x5
 b50:	00100793          	li	a5,1
 b54:	010797b3          	sll	a5,a5,a6
 b58:	00a7e7b3          	or	a5,a5,a0
 b5c:	ff868513          	addi	a0,a3,-8
 b60:	00a72623          	sw	a0,12(a4)
 b64:	00c72423          	sw	a2,8(a4)
 b68:	00f5a223          	sw	a5,4(a1)
 b6c:	00e6a023          	sw	a4,0(a3)
 b70:	00e62623          	sw	a4,12(a2)
 b74:	00812403          	lw	s0,8(sp)
 b78:	00c12083          	lw	ra,12(sp)
 b7c:	00048513          	mv	a0,s1
 b80:	00412483          	lw	s1,4(sp)
 b84:	01010113          	addi	sp,sp,16
 b88:	d6dff06f          	j	8f4 <__malloc_unlock>
 b8c:	00452503          	lw	a0,4(a0)
 b90:	00157513          	andi	a0,a0,1
 b94:	02051e63          	bnez	a0,bd0 <_free_r+0x138>
 b98:	00010537          	lui	a0,0x10
 b9c:	00d787b3          	add	a5,a5,a3
 ba0:	02850513          	addi	a0,a0,40 # 10028 <__malloc_av_+0x8>
 ba4:	00862683          	lw	a3,8(a2)
 ba8:	0017e893          	ori	a7,a5,1
 bac:	00f70833          	add	a6,a4,a5
 bb0:	16a68863          	beq	a3,a0,d20 <_free_r+0x288>
 bb4:	00c62603          	lw	a2,12(a2)
 bb8:	00c6a623          	sw	a2,12(a3)
 bbc:	00d62423          	sw	a3,8(a2)
 bc0:	01172223          	sw	a7,4(a4)
 bc4:	00f82023          	sw	a5,0(a6)
 bc8:	f69ff06f          	j	b30 <_free_r+0x98>
 bcc:	00008067          	ret
 bd0:	0017e693          	ori	a3,a5,1
 bd4:	fed42e23          	sw	a3,-4(s0)
 bd8:	00f62023          	sw	a5,0(a2)
 bdc:	1ff00693          	li	a3,511
 be0:	f4f6fce3          	bgeu	a3,a5,b38 <_free_r+0xa0>
 be4:	0097d693          	srli	a3,a5,0x9
 be8:	00400613          	li	a2,4
 bec:	0ed66c63          	bltu	a2,a3,ce4 <_free_r+0x24c>
 bf0:	0067d693          	srli	a3,a5,0x6
 bf4:	03968813          	addi	a6,a3,57
 bf8:	03868613          	addi	a2,a3,56
 bfc:	00381813          	slli	a6,a6,0x3
 c00:	01058833          	add	a6,a1,a6
 c04:	00082683          	lw	a3,0(a6)
 c08:	ff880813          	addi	a6,a6,-8
 c0c:	12d80863          	beq	a6,a3,d3c <_free_r+0x2a4>
 c10:	0046a603          	lw	a2,4(a3)
 c14:	ffc67613          	andi	a2,a2,-4
 c18:	00c7f663          	bgeu	a5,a2,c24 <_free_r+0x18c>
 c1c:	0086a683          	lw	a3,8(a3)
 c20:	fed818e3          	bne	a6,a3,c10 <_free_r+0x178>
 c24:	00c6a803          	lw	a6,12(a3)
 c28:	01072623          	sw	a6,12(a4)
 c2c:	00d72423          	sw	a3,8(a4)
 c30:	00812403          	lw	s0,8(sp)
 c34:	00c12083          	lw	ra,12(sp)
 c38:	00e82423          	sw	a4,8(a6)
 c3c:	00048513          	mv	a0,s1
 c40:	00412483          	lw	s1,4(sp)
 c44:	00e6a623          	sw	a4,12(a3)
 c48:	01010113          	addi	sp,sp,16
 c4c:	ca9ff06f          	j	8f4 <__malloc_unlock>
 c50:	14081663          	bnez	a6,d9c <_free_r+0x304>
 c54:	00c62583          	lw	a1,12(a2)
 c58:	00862603          	lw	a2,8(a2)
 c5c:	00f687b3          	add	a5,a3,a5
 c60:	00812403          	lw	s0,8(sp)
 c64:	00b62623          	sw	a1,12(a2)
 c68:	00c5a423          	sw	a2,8(a1)
 c6c:	0017e693          	ori	a3,a5,1
 c70:	00c12083          	lw	ra,12(sp)
 c74:	00d72223          	sw	a3,4(a4)
 c78:	00048513          	mv	a0,s1
 c7c:	00f70733          	add	a4,a4,a5
 c80:	00412483          	lw	s1,4(sp)
 c84:	00f72023          	sw	a5,0(a4)
 c88:	01010113          	addi	sp,sp,16
 c8c:	c69ff06f          	j	8f4 <__malloc_unlock>
 c90:	00187813          	andi	a6,a6,1
 c94:	00d787b3          	add	a5,a5,a3
 c98:	02081063          	bnez	a6,cb8 <_free_r+0x220>
 c9c:	ff842503          	lw	a0,-8(s0)
 ca0:	40a70733          	sub	a4,a4,a0
 ca4:	00c72683          	lw	a3,12(a4)
 ca8:	00872603          	lw	a2,8(a4)
 cac:	00a787b3          	add	a5,a5,a0
 cb0:	00d62623          	sw	a3,12(a2)
 cb4:	00c6a423          	sw	a2,8(a3)
 cb8:	000116b7          	lui	a3,0x11
 cbc:	0017e613          	ori	a2,a5,1
 cc0:	8546a683          	lw	a3,-1964(a3) # 10854 <__malloc_trim_threshold>
 cc4:	00c72223          	sw	a2,4(a4)
 cc8:	00e5a423          	sw	a4,8(a1)
 ccc:	ead7e4e3          	bltu	a5,a3,b74 <_free_r+0xdc>
 cd0:	000117b7          	lui	a5,0x11
 cd4:	88c7a583          	lw	a1,-1908(a5) # 1088c <__malloc_top_pad>
 cd8:	00048513          	mv	a0,s1
 cdc:	c7dff0ef          	jal	ra,958 <_malloc_trim_r>
 ce0:	e95ff06f          	j	b74 <_free_r+0xdc>
 ce4:	01400613          	li	a2,20
 ce8:	02d67463          	bgeu	a2,a3,d10 <_free_r+0x278>
 cec:	05400613          	li	a2,84
 cf0:	06d66463          	bltu	a2,a3,d58 <_free_r+0x2c0>
 cf4:	00c7d693          	srli	a3,a5,0xc
 cf8:	06f68813          	addi	a6,a3,111
 cfc:	06e68613          	addi	a2,a3,110
 d00:	00381813          	slli	a6,a6,0x3
 d04:	efdff06f          	j	c00 <_free_r+0x168>
 d08:	00d787b3          	add	a5,a5,a3
 d0c:	e99ff06f          	j	ba4 <_free_r+0x10c>
 d10:	05c68813          	addi	a6,a3,92
 d14:	05b68613          	addi	a2,a3,91
 d18:	00381813          	slli	a6,a6,0x3
 d1c:	ee5ff06f          	j	c00 <_free_r+0x168>
 d20:	00e5aa23          	sw	a4,20(a1)
 d24:	00e5a823          	sw	a4,16(a1)
 d28:	00a72623          	sw	a0,12(a4)
 d2c:	00a72423          	sw	a0,8(a4)
 d30:	01172223          	sw	a7,4(a4)
 d34:	00f82023          	sw	a5,0(a6)
 d38:	e3dff06f          	j	b74 <_free_r+0xdc>
 d3c:	0045a503          	lw	a0,4(a1)
 d40:	40265613          	srai	a2,a2,0x2
 d44:	00100793          	li	a5,1
 d48:	00c79633          	sll	a2,a5,a2
 d4c:	00a66633          	or	a2,a2,a0
 d50:	00c5a223          	sw	a2,4(a1)
 d54:	ed5ff06f          	j	c28 <_free_r+0x190>
 d58:	15400613          	li	a2,340
 d5c:	00d66c63          	bltu	a2,a3,d74 <_free_r+0x2dc>
 d60:	00f7d693          	srli	a3,a5,0xf
 d64:	07868813          	addi	a6,a3,120
 d68:	07768613          	addi	a2,a3,119
 d6c:	00381813          	slli	a6,a6,0x3
 d70:	e91ff06f          	j	c00 <_free_r+0x168>
 d74:	55400613          	li	a2,1364
 d78:	00d66c63          	bltu	a2,a3,d90 <_free_r+0x2f8>
 d7c:	0127d693          	srli	a3,a5,0x12
 d80:	07d68813          	addi	a6,a3,125
 d84:	07c68613          	addi	a2,a3,124
 d88:	00381813          	slli	a6,a6,0x3
 d8c:	e75ff06f          	j	c00 <_free_r+0x168>
 d90:	3f800813          	li	a6,1016
 d94:	07e00613          	li	a2,126
 d98:	e69ff06f          	j	c00 <_free_r+0x168>
 d9c:	0017e693          	ori	a3,a5,1
 da0:	00d72223          	sw	a3,4(a4)
 da4:	00f62023          	sw	a5,0(a2)
 da8:	dcdff06f          	j	b74 <_free_r+0xdc>

00000dac <_sbrk>:
_sbrk():
 dac:	00011337          	lui	t1,0x11
 db0:	89432783          	lw	a5,-1900(t1) # 10894 <heap_end.0>
 db4:	ff010113          	addi	sp,sp,-16
 db8:	00112623          	sw	ra,12(sp)
 dbc:	00050813          	mv	a6,a0
 dc0:	02079863          	bnez	a5,df0 <_sbrk+0x44>
 dc4:	00000513          	li	a0,0
 dc8:	00000593          	li	a1,0
 dcc:	00000613          	li	a2,0
 dd0:	00000693          	li	a3,0
 dd4:	00000713          	li	a4,0
 dd8:	0d600893          	li	a7,214
 ddc:	00000073          	ecall
 de0:	fff00713          	li	a4,-1
 de4:	00050793          	mv	a5,a0
 de8:	04e50463          	beq	a0,a4,e30 <_sbrk+0x84>
 dec:	88a32a23          	sw	a0,-1900(t1)
 df0:	00f80533          	add	a0,a6,a5
 df4:	00000593          	li	a1,0
 df8:	00000613          	li	a2,0
 dfc:	00000693          	li	a3,0
 e00:	00000713          	li	a4,0
 e04:	00000793          	li	a5,0
 e08:	0d600893          	li	a7,214
 e0c:	00000073          	ecall
 e10:	89432783          	lw	a5,-1900(t1)
 e14:	00f80833          	add	a6,a6,a5
 e18:	01051c63          	bne	a0,a6,e30 <_sbrk+0x84>
 e1c:	00c12083          	lw	ra,12(sp)
 e20:	88a32a23          	sw	a0,-1900(t1)
 e24:	00078513          	mv	a0,a5
 e28:	01010113          	addi	sp,sp,16
 e2c:	00008067          	ret
 e30:	01c000ef          	jal	ra,e4c <__errno>
 e34:	00c12083          	lw	ra,12(sp)
 e38:	00c00793          	li	a5,12
 e3c:	00f52023          	sw	a5,0(a0)
 e40:	fff00513          	li	a0,-1
 e44:	01010113          	addi	sp,sp,16
 e48:	00008067          	ret

00000e4c <__errno>:
__errno():
 e4c:	000117b7          	lui	a5,0x11
 e50:	8587a503          	lw	a0,-1960(a5) # 10858 <_impure_ptr>
 e54:	00008067          	ret

Disassembly of section .text.merge:

00000e58 <merge>:
merge():
C:\Users\Catalina\Documents\Universidad\1-2\FC2\Ensamblador\FC2practicasWS\pr4\Debug/../pr4.c:30
 * @param n total number of elements in the array
 */

extern void merge_sort ( int *a, int n, int l, int r ) ;
void merge(int *a, int l, int r, int n)
{
     e58:	fd010113          	addi	sp,sp,-48
     e5c:	02112623          	sw	ra,44(sp)
     e60:	02812423          	sw	s0,40(sp)
     e64:	03010413          	addi	s0,sp,48
     e68:	fca42e23          	sw	a0,-36(s0)
     e6c:	fcb42c23          	sw	a1,-40(s0)
     e70:	fcc42a23          	sw	a2,-44(s0)
     e74:	fcd42823          	sw	a3,-48(s0)
C:\Users\Catalina\Documents\Universidad\1-2\FC2\Ensamblador\FC2practicasWS\pr4\Debug/../pr4.c:31
    int *b = (int *)malloc(n * sizeof(int)); /* dynamic memory must be freed */
     e78:	fd042783          	lw	a5,-48(s0)
     e7c:	00279793          	slli	a5,a5,0x2
     e80:	00078513          	mv	a0,a5
     e84:	a94ff0ef          	jal	ra,118 <malloc>
     e88:	00050793          	mv	a5,a0
     e8c:	fef42023          	sw	a5,-32(s0)
C:\Users\Catalina\Documents\Universidad\1-2\FC2\Ensamblador\FC2practicasWS\pr4\Debug/../pr4.c:33

		int c = l;
     e90:	fd842783          	lw	a5,-40(s0)
     e94:	fef42623          	sw	a5,-20(s0)
C:\Users\Catalina\Documents\Universidad\1-2\FC2\Ensamblador\FC2practicasWS\pr4\Debug/../pr4.c:35
		int p1, p2;
		p1 = l;
     e98:	fd842783          	lw	a5,-40(s0)
     e9c:	fef42423          	sw	a5,-24(s0)
C:\Users\Catalina\Documents\Universidad\1-2\FC2\Ensamblador\FC2practicasWS\pr4\Debug/../pr4.c:36
		p2 = ((l + r) / 2) + 1;
     ea0:	fd842703          	lw	a4,-40(s0)
     ea4:	fd442783          	lw	a5,-44(s0)
     ea8:	00f707b3          	add	a5,a4,a5
     eac:	01f7d713          	srli	a4,a5,0x1f
     eb0:	00f707b3          	add	a5,a4,a5
     eb4:	4017d793          	srai	a5,a5,0x1
     eb8:	00178793          	addi	a5,a5,1
     ebc:	fef42223          	sw	a5,-28(s0)
C:\Users\Catalina\Documents\Universidad\1-2\FC2\Ensamblador\FC2practicasWS\pr4\Debug/../pr4.c:37
		while ((p1 < ((l + r) / 2) + 1) && (p2 < r + 1))
     ec0:	0ac0006f          	j	f6c <merge+0x114>
C:\Users\Catalina\Documents\Universidad\1-2\FC2\Ensamblador\FC2practicasWS\pr4\Debug/../pr4.c:39
		{
			if (a[p1] <= a[p2])
     ec4:	fe842783          	lw	a5,-24(s0)
     ec8:	00279793          	slli	a5,a5,0x2
     ecc:	fdc42703          	lw	a4,-36(s0)
     ed0:	00f707b3          	add	a5,a4,a5
     ed4:	0007a703          	lw	a4,0(a5)
     ed8:	fe442783          	lw	a5,-28(s0)
     edc:	00279793          	slli	a5,a5,0x2
     ee0:	fdc42683          	lw	a3,-36(s0)
     ee4:	00f687b3          	add	a5,a3,a5
     ee8:	0007a783          	lw	a5,0(a5)
     eec:	04e7c263          	blt	a5,a4,f30 <merge+0xd8>
C:\Users\Catalina\Documents\Universidad\1-2\FC2\Ensamblador\FC2practicasWS\pr4\Debug/../pr4.c:41
			{
				b[c++] = a[p1];
     ef0:	fe842783          	lw	a5,-24(s0)
     ef4:	00279793          	slli	a5,a5,0x2
     ef8:	fdc42703          	lw	a4,-36(s0)
     efc:	00f70733          	add	a4,a4,a5
     f00:	fec42783          	lw	a5,-20(s0)
     f04:	00178693          	addi	a3,a5,1
     f08:	fed42623          	sw	a3,-20(s0)
     f0c:	00279793          	slli	a5,a5,0x2
     f10:	fe042683          	lw	a3,-32(s0)
     f14:	00f687b3          	add	a5,a3,a5
     f18:	00072703          	lw	a4,0(a4)
     f1c:	00e7a023          	sw	a4,0(a5)
C:\Users\Catalina\Documents\Universidad\1-2\FC2\Ensamblador\FC2practicasWS\pr4\Debug/../pr4.c:42
				p1++;
     f20:	fe842783          	lw	a5,-24(s0)
     f24:	00178793          	addi	a5,a5,1
     f28:	fef42423          	sw	a5,-24(s0)
     f2c:	0400006f          	j	f6c <merge+0x114>
C:\Users\Catalina\Documents\Universidad\1-2\FC2\Ensamblador\FC2practicasWS\pr4\Debug/../pr4.c:46
			}
			else
			{
				b[c++] = a[p2];
     f30:	fe442783          	lw	a5,-28(s0)
     f34:	00279793          	slli	a5,a5,0x2
     f38:	fdc42703          	lw	a4,-36(s0)
     f3c:	00f70733          	add	a4,a4,a5
     f40:	fec42783          	lw	a5,-20(s0)
     f44:	00178693          	addi	a3,a5,1
     f48:	fed42623          	sw	a3,-20(s0)
     f4c:	00279793          	slli	a5,a5,0x2
     f50:	fe042683          	lw	a3,-32(s0)
     f54:	00f687b3          	add	a5,a3,a5
     f58:	00072703          	lw	a4,0(a4)
     f5c:	00e7a023          	sw	a4,0(a5)
C:\Users\Catalina\Documents\Universidad\1-2\FC2\Ensamblador\FC2practicasWS\pr4\Debug/../pr4.c:47
				p2++;
     f60:	fe442783          	lw	a5,-28(s0)
     f64:	00178793          	addi	a5,a5,1
     f68:	fef42223          	sw	a5,-28(s0)
C:\Users\Catalina\Documents\Universidad\1-2\FC2\Ensamblador\FC2practicasWS\pr4\Debug/../pr4.c:37
		while ((p1 < ((l + r) / 2) + 1) && (p2 < r + 1))
     f6c:	fd842703          	lw	a4,-40(s0)
     f70:	fd442783          	lw	a5,-44(s0)
     f74:	00f707b3          	add	a5,a4,a5
     f78:	01f7d713          	srli	a4,a5,0x1f
     f7c:	00f707b3          	add	a5,a4,a5
     f80:	4017d793          	srai	a5,a5,0x1
     f84:	00078713          	mv	a4,a5
     f88:	fe842783          	lw	a5,-24(s0)
     f8c:	00f74863          	blt	a4,a5,f9c <merge+0x144>
C:\Users\Catalina\Documents\Universidad\1-2\FC2\Ensamblador\FC2practicasWS\pr4\Debug/../pr4.c:37 (discriminator 1)
     f90:	fd442703          	lw	a4,-44(s0)
     f94:	fe442783          	lw	a5,-28(s0)
     f98:	f2f756e3          	bge	a4,a5,ec4 <merge+0x6c>
C:\Users\Catalina\Documents\Universidad\1-2\FC2\Ensamblador\FC2practicasWS\pr4\Debug/../pr4.c:51
			}
		}

		if (p2 == r + 1)
     f9c:	fd442783          	lw	a5,-44(s0)
     fa0:	00178793          	addi	a5,a5,1
     fa4:	fe442703          	lw	a4,-28(s0)
     fa8:	0af71463          	bne	a4,a5,1050 <merge+0x1f8>
C:\Users\Catalina\Documents\Universidad\1-2\FC2\Ensamblador\FC2practicasWS\pr4\Debug/../pr4.c:53
		{
			while ((p1 < ((l + r) / 2) + 1))
     fac:	0400006f          	j	fec <merge+0x194>
C:\Users\Catalina\Documents\Universidad\1-2\FC2\Ensamblador\FC2practicasWS\pr4\Debug/../pr4.c:55
			{
				b[c++] = a[p1];
     fb0:	fe842783          	lw	a5,-24(s0)
     fb4:	00279793          	slli	a5,a5,0x2
     fb8:	fdc42703          	lw	a4,-36(s0)
     fbc:	00f70733          	add	a4,a4,a5
     fc0:	fec42783          	lw	a5,-20(s0)
     fc4:	00178693          	addi	a3,a5,1
     fc8:	fed42623          	sw	a3,-20(s0)
     fcc:	00279793          	slli	a5,a5,0x2
     fd0:	fe042683          	lw	a3,-32(s0)
     fd4:	00f687b3          	add	a5,a3,a5
     fd8:	00072703          	lw	a4,0(a4)
     fdc:	00e7a023          	sw	a4,0(a5)
C:\Users\Catalina\Documents\Universidad\1-2\FC2\Ensamblador\FC2practicasWS\pr4\Debug/../pr4.c:56
				p1++;
     fe0:	fe842783          	lw	a5,-24(s0)
     fe4:	00178793          	addi	a5,a5,1
     fe8:	fef42423          	sw	a5,-24(s0)
C:\Users\Catalina\Documents\Universidad\1-2\FC2\Ensamblador\FC2practicasWS\pr4\Debug/../pr4.c:53
			while ((p1 < ((l + r) / 2) + 1))
     fec:	fd842703          	lw	a4,-40(s0)
     ff0:	fd442783          	lw	a5,-44(s0)
     ff4:	00f707b3          	add	a5,a4,a5
     ff8:	01f7d713          	srli	a4,a5,0x1f
     ffc:	00f707b3          	add	a5,a4,a5
    1000:	4017d793          	srai	a5,a5,0x1
    1004:	00078713          	mv	a4,a5
    1008:	fe842783          	lw	a5,-24(s0)
    100c:	faf752e3          	bge	a4,a5,fb0 <merge+0x158>
    1010:	04c0006f          	j	105c <merge+0x204>
C:\Users\Catalina\Documents\Universidad\1-2\FC2\Ensamblador\FC2practicasWS\pr4\Debug/../pr4.c:63
		}
		else
		{
			while ((p2 < r + 1))
			{
				b[c++] = a[p2];
    1014:	fe442783          	lw	a5,-28(s0)
    1018:	00279793          	slli	a5,a5,0x2
    101c:	fdc42703          	lw	a4,-36(s0)
    1020:	00f70733          	add	a4,a4,a5
    1024:	fec42783          	lw	a5,-20(s0)
    1028:	00178693          	addi	a3,a5,1
    102c:	fed42623          	sw	a3,-20(s0)
    1030:	00279793          	slli	a5,a5,0x2
    1034:	fe042683          	lw	a3,-32(s0)
    1038:	00f687b3          	add	a5,a3,a5
    103c:	00072703          	lw	a4,0(a4)
    1040:	00e7a023          	sw	a4,0(a5)
C:\Users\Catalina\Documents\Universidad\1-2\FC2\Ensamblador\FC2practicasWS\pr4\Debug/../pr4.c:64
				p2++;
    1044:	fe442783          	lw	a5,-28(s0)
    1048:	00178793          	addi	a5,a5,1
    104c:	fef42223          	sw	a5,-28(s0)
C:\Users\Catalina\Documents\Universidad\1-2\FC2\Ensamblador\FC2practicasWS\pr4\Debug/../pr4.c:61
			while ((p2 < r + 1))
    1050:	fd442703          	lw	a4,-44(s0)
    1054:	fe442783          	lw	a5,-28(s0)
    1058:	faf75ee3          	bge	a4,a5,1014 <merge+0x1bc>
C:\Users\Catalina\Documents\Universidad\1-2\FC2\Ensamblador\FC2practicasWS\pr4\Debug/../pr4.c:68
			}
		}

		for (c = l; c < r + 1; c++) a[c] = b[c];
    105c:	fd842783          	lw	a5,-40(s0)
    1060:	fef42623          	sw	a5,-20(s0)
    1064:	0380006f          	j	109c <merge+0x244>
C:\Users\Catalina\Documents\Universidad\1-2\FC2\Ensamblador\FC2practicasWS\pr4\Debug/../pr4.c:68 (discriminator 3)
    1068:	fec42783          	lw	a5,-20(s0)
    106c:	00279793          	slli	a5,a5,0x2
    1070:	fe042703          	lw	a4,-32(s0)
    1074:	00f70733          	add	a4,a4,a5
    1078:	fec42783          	lw	a5,-20(s0)
    107c:	00279793          	slli	a5,a5,0x2
    1080:	fdc42683          	lw	a3,-36(s0)
    1084:	00f687b3          	add	a5,a3,a5
    1088:	00072703          	lw	a4,0(a4)
    108c:	00e7a023          	sw	a4,0(a5)
    1090:	fec42783          	lw	a5,-20(s0)
    1094:	00178793          	addi	a5,a5,1
    1098:	fef42623          	sw	a5,-20(s0)
C:\Users\Catalina\Documents\Universidad\1-2\FC2\Ensamblador\FC2practicasWS\pr4\Debug/../pr4.c:68 (discriminator 1)
    109c:	fd442703          	lw	a4,-44(s0)
    10a0:	fec42783          	lw	a5,-20(s0)
    10a4:	fcf752e3          	bge	a4,a5,1068 <merge+0x210>
C:\Users\Catalina\Documents\Universidad\1-2\FC2\Ensamblador\FC2practicasWS\pr4\Debug/../pr4.c:70

}
    10a8:	00000013          	nop
    10ac:	00000013          	nop
    10b0:	02c12083          	lw	ra,44(sp)
    10b4:	02812403          	lw	s0,40(sp)
    10b8:	03010113          	addi	sp,sp,48
    10bc:	00008067          	ret
