
pr5.elf:     file format elf32-littleriscv
pr5.elf
architecture: riscv:rv32, flags 0x00000112:
EXEC_P, HAS_SYMS, D_PAGED
start address 0x000003c0

Program Header:
    LOAD off    0x00001000 vaddr 0x00000000 paddr 0x00000000 align 2**12
         filesz 0x00000418 memsz 0x00000418 flags r-x

Sections:
Idx Name              Size      VMA       LMA       File off  Algn  Flags
  0 .text.swap        0000004c  00000000  00000000  00001000  2**2  CONTENTS, ALLOC, LOAD, READONLY, CODE
  1 .text.merge       00000254  0000004c  0000004c  0000104c  2**2  CONTENTS, ALLOC, LOAD, READONLY, CODE
  2 .text.merge_sort  00000120  000002a0  000002a0  000012a0  2**2  CONTENTS, ALLOC, LOAD, READONLY, CODE
  3 .text.main        00000058  000003c0  000003c0  000013c0  2**2  CONTENTS, ALLOC, LOAD, READONLY, CODE
  4 .riscv.attributes 00000021  00000000  00000000  00001418  2**0  CONTENTS, READONLY
  5 .comment          00000012  00000000  00000000  00001439  2**0  CONTENTS, READONLY
  6 .debug_info       0000017f  00000000  00000000  0000144b  2**0  CONTENTS, READONLY, DEBUGGING, OCTETS
  7 .debug_abbrev     000000bd  00000000  00000000  000015ca  2**0  CONTENTS, READONLY, DEBUGGING, OCTETS
  8 .debug_aranges    00000038  00000000  00000000  00001687  2**0  CONTENTS, READONLY, DEBUGGING, OCTETS
  9 .debug_ranges     00000028  00000000  00000000  000016bf  2**0  CONTENTS, READONLY, DEBUGGING, OCTETS
 10 .debug_macro      000006f9  00000000  00000000  000016e7  2**0  CONTENTS, READONLY, DEBUGGING, OCTETS
 11 .debug_line       00000329  00000000  00000000  00001de0  2**0  CONTENTS, READONLY, DEBUGGING, OCTETS
 12 .debug_str        000023fd  00000000  00000000  00002109  2**0  CONTENTS, READONLY, DEBUGGING, OCTETS
 13 .debug_frame      000000a8  00000000  00000000  00004508  2**2  CONTENTS, READONLY, DEBUGGING, OCTETS
SYMBOL TABLE:
00000000 l    d  .text.swap	00000000 .text.swap
0000004c l    d  .text.merge	00000000 .text.merge
000002a0 l    d  .text.merge_sort	00000000 .text.merge_sort
000003c0 l    d  .text.main	00000000 .text.main
00000000 l    d  .riscv.attributes	00000000 .riscv.attributes
00000000 l    d  .comment	00000000 .comment
00000000 l    d  .debug_info	00000000 .debug_info
00000000 l    d  .debug_abbrev	00000000 .debug_abbrev
00000000 l    d  .debug_aranges	00000000 .debug_aranges
00000000 l    d  .debug_ranges	00000000 .debug_ranges
00000000 l    d  .debug_macro	00000000 .debug_macro
00000000 l    d  .debug_line	00000000 .debug_line
00000000 l    d  .debug_str	00000000 .debug_str
00000000 l    d  .debug_frame	00000000 .debug_frame
00000000 l    df *ABS*	00000000 fun_c.c
0000004c g     F .text.merge	00000254 merge
000002a0 g     F .text.merge_sort	00000120 merge_sort
00000000 g     F .text.swap	0000004c swap
000003c0 g     F .text.main	00000058 main
00020000 g       *ABS*	00000000 _stack



Disassembly of section .text.swap:

00000000 <swap>:
swap():
C:\Users\Catalina\Documents\Universidad\1-2\FC2\Ensamblador\practicasw2\pr5\Debug/../fun_c.c:17
/** Swap two integer variables
 * @param [in,out] a pointer to first variable
 * @param [in,out] b pointer to second variable
 */
void swap(int *a, int *b)
{
   0:	fd010113          	addi	sp,sp,-48
   4:	02812623          	sw	s0,44(sp)
   8:	03010413          	addi	s0,sp,48
   c:	fca42e23          	sw	a0,-36(s0)
  10:	fcb42c23          	sw	a1,-40(s0)
C:\Users\Catalina\Documents\Universidad\1-2\FC2\Ensamblador\practicasw2\pr5\Debug/../fun_c.c:19
    int t;
    t = *a;
  14:	fdc42783          	lw	a5,-36(s0)
  18:	0007a783          	lw	a5,0(a5)
  1c:	fef42623          	sw	a5,-20(s0)
C:\Users\Catalina\Documents\Universidad\1-2\FC2\Ensamblador\practicasw2\pr5\Debug/../fun_c.c:20
    *a = *b;
  20:	fd842783          	lw	a5,-40(s0)
  24:	0007a703          	lw	a4,0(a5)
  28:	fdc42783          	lw	a5,-36(s0)
  2c:	00e7a023          	sw	a4,0(a5)
C:\Users\Catalina\Documents\Universidad\1-2\FC2\Ensamblador\practicasw2\pr5\Debug/../fun_c.c:21
    *b = t;
  30:	fd842783          	lw	a5,-40(s0)
  34:	fec42703          	lw	a4,-20(s0)
  38:	00e7a023          	sw	a4,0(a5)
C:\Users\Catalina\Documents\Universidad\1-2\FC2\Ensamblador\practicasw2\pr5\Debug/../fun_c.c:22
}
  3c:	00000013          	nop
  40:	02c12403          	lw	s0,44(sp)
  44:	03010113          	addi	sp,sp,48
  48:	00008067          	ret

Disassembly of section .text.merge:

0000004c <merge>:
merge():
C:\Users\Catalina\Documents\Universidad\1-2\FC2\Ensamblador\practicasw2\pr5\Debug/../fun_c.c:33
 * @param l left index for merge
 * @param r right index for merge
 * @param n total number of elements in the array
 */
void merge(int *a, int l, int r, int n)
{
  4c:	fd010113          	addi	sp,sp,-48
  50:	02812623          	sw	s0,44(sp)
  54:	03010413          	addi	s0,sp,48
  58:	fca42e23          	sw	a0,-36(s0)
  5c:	fcb42c23          	sw	a1,-40(s0)
  60:	fcc42a23          	sw	a2,-44(s0)
  64:	fcd42823          	sw	a3,-48(s0)
C:\Users\Catalina\Documents\Universidad\1-2\FC2\Ensamblador\practicasw2\pr5\Debug/../fun_c.c:34
    int *b = (int *)(n * sizeof(int)); /* dynamic memory must be freed */
  68:	fd042783          	lw	a5,-48(s0)
  6c:	00279793          	slli	a5,a5,0x2
  70:	fef42023          	sw	a5,-32(s0)
C:\Users\Catalina\Documents\Universidad\1-2\FC2\Ensamblador\practicasw2\pr5\Debug/../fun_c.c:36

    int c = l;
  74:	fd842783          	lw	a5,-40(s0)
  78:	fef42623          	sw	a5,-20(s0)
C:\Users\Catalina\Documents\Universidad\1-2\FC2\Ensamblador\practicasw2\pr5\Debug/../fun_c.c:38
    int p1, p2;
    p1 = l;
  7c:	fd842783          	lw	a5,-40(s0)
  80:	fef42423          	sw	a5,-24(s0)
C:\Users\Catalina\Documents\Universidad\1-2\FC2\Ensamblador\practicasw2\pr5\Debug/../fun_c.c:39
    p2 = ((l + r) / 2) + 1;
  84:	fd842703          	lw	a4,-40(s0)
  88:	fd442783          	lw	a5,-44(s0)
  8c:	00f707b3          	add	a5,a4,a5
  90:	01f7d713          	srli	a4,a5,0x1f
  94:	00f707b3          	add	a5,a4,a5
  98:	4017d793          	srai	a5,a5,0x1
  9c:	00178793          	addi	a5,a5,1
  a0:	fef42223          	sw	a5,-28(s0)
C:\Users\Catalina\Documents\Universidad\1-2\FC2\Ensamblador\practicasw2\pr5\Debug/../fun_c.c:40
    while ((p1 < ((l + r) / 2) + 1) && (p2 < r + 1))
  a4:	0ac0006f          	j	150 <merge+0x104>
C:\Users\Catalina\Documents\Universidad\1-2\FC2\Ensamblador\practicasw2\pr5\Debug/../fun_c.c:42
    {
        if (a[p1] <= a[p2])
  a8:	fe842783          	lw	a5,-24(s0)
  ac:	00279793          	slli	a5,a5,0x2
  b0:	fdc42703          	lw	a4,-36(s0)
  b4:	00f707b3          	add	a5,a4,a5
  b8:	0007a703          	lw	a4,0(a5)
  bc:	fe442783          	lw	a5,-28(s0)
  c0:	00279793          	slli	a5,a5,0x2
  c4:	fdc42683          	lw	a3,-36(s0)
  c8:	00f687b3          	add	a5,a3,a5
  cc:	0007a783          	lw	a5,0(a5)
  d0:	04e7c263          	blt	a5,a4,114 <merge+0xc8>
C:\Users\Catalina\Documents\Universidad\1-2\FC2\Ensamblador\practicasw2\pr5\Debug/../fun_c.c:44
        {
            b[c++] = a[p1];
  d4:	fe842783          	lw	a5,-24(s0)
  d8:	00279793          	slli	a5,a5,0x2
  dc:	fdc42703          	lw	a4,-36(s0)
  e0:	00f70733          	add	a4,a4,a5
  e4:	fec42783          	lw	a5,-20(s0)
  e8:	00178693          	addi	a3,a5,1
  ec:	fed42623          	sw	a3,-20(s0)
  f0:	00279793          	slli	a5,a5,0x2
  f4:	fe042683          	lw	a3,-32(s0)
  f8:	00f687b3          	add	a5,a3,a5
  fc:	00072703          	lw	a4,0(a4)
 100:	00e7a023          	sw	a4,0(a5)
C:\Users\Catalina\Documents\Universidad\1-2\FC2\Ensamblador\practicasw2\pr5\Debug/../fun_c.c:45
            p1++;
 104:	fe842783          	lw	a5,-24(s0)
 108:	00178793          	addi	a5,a5,1
 10c:	fef42423          	sw	a5,-24(s0)
 110:	0400006f          	j	150 <merge+0x104>
C:\Users\Catalina\Documents\Universidad\1-2\FC2\Ensamblador\practicasw2\pr5\Debug/../fun_c.c:49
        }
        else
        {
            b[c++] = a[p2];
 114:	fe442783          	lw	a5,-28(s0)
 118:	00279793          	slli	a5,a5,0x2
 11c:	fdc42703          	lw	a4,-36(s0)
 120:	00f70733          	add	a4,a4,a5
 124:	fec42783          	lw	a5,-20(s0)
 128:	00178693          	addi	a3,a5,1
 12c:	fed42623          	sw	a3,-20(s0)
 130:	00279793          	slli	a5,a5,0x2
 134:	fe042683          	lw	a3,-32(s0)
 138:	00f687b3          	add	a5,a3,a5
 13c:	00072703          	lw	a4,0(a4)
 140:	00e7a023          	sw	a4,0(a5)
C:\Users\Catalina\Documents\Universidad\1-2\FC2\Ensamblador\practicasw2\pr5\Debug/../fun_c.c:50
            p2++;
 144:	fe442783          	lw	a5,-28(s0)
 148:	00178793          	addi	a5,a5,1
 14c:	fef42223          	sw	a5,-28(s0)
C:\Users\Catalina\Documents\Universidad\1-2\FC2\Ensamblador\practicasw2\pr5\Debug/../fun_c.c:40
    while ((p1 < ((l + r) / 2) + 1) && (p2 < r + 1))
 150:	fd842703          	lw	a4,-40(s0)
 154:	fd442783          	lw	a5,-44(s0)
 158:	00f707b3          	add	a5,a4,a5
 15c:	01f7d713          	srli	a4,a5,0x1f
 160:	00f707b3          	add	a5,a4,a5
 164:	4017d793          	srai	a5,a5,0x1
 168:	00078713          	mv	a4,a5
 16c:	fe842783          	lw	a5,-24(s0)
 170:	00f74863          	blt	a4,a5,180 <merge+0x134>
C:\Users\Catalina\Documents\Universidad\1-2\FC2\Ensamblador\practicasw2\pr5\Debug/../fun_c.c:40 (discriminator 1)
 174:	fd442703          	lw	a4,-44(s0)
 178:	fe442783          	lw	a5,-28(s0)
 17c:	f2f756e3          	bge	a4,a5,a8 <merge+0x5c>
C:\Users\Catalina\Documents\Universidad\1-2\FC2\Ensamblador\practicasw2\pr5\Debug/../fun_c.c:54
        }
    }

    if (p2 == r + 1)
 180:	fd442783          	lw	a5,-44(s0)
 184:	00178793          	addi	a5,a5,1
 188:	fe442703          	lw	a4,-28(s0)
 18c:	0af71463          	bne	a4,a5,234 <merge+0x1e8>
C:\Users\Catalina\Documents\Universidad\1-2\FC2\Ensamblador\practicasw2\pr5\Debug/../fun_c.c:56
    {
        while ((p1 < ((l + r) / 2) + 1))
 190:	0400006f          	j	1d0 <merge+0x184>
C:\Users\Catalina\Documents\Universidad\1-2\FC2\Ensamblador\practicasw2\pr5\Debug/../fun_c.c:58
        {
            b[c++] = a[p1];
 194:	fe842783          	lw	a5,-24(s0)
 198:	00279793          	slli	a5,a5,0x2
 19c:	fdc42703          	lw	a4,-36(s0)
 1a0:	00f70733          	add	a4,a4,a5
 1a4:	fec42783          	lw	a5,-20(s0)
 1a8:	00178693          	addi	a3,a5,1
 1ac:	fed42623          	sw	a3,-20(s0)
 1b0:	00279793          	slli	a5,a5,0x2
 1b4:	fe042683          	lw	a3,-32(s0)
 1b8:	00f687b3          	add	a5,a3,a5
 1bc:	00072703          	lw	a4,0(a4)
 1c0:	00e7a023          	sw	a4,0(a5)
C:\Users\Catalina\Documents\Universidad\1-2\FC2\Ensamblador\practicasw2\pr5\Debug/../fun_c.c:59
            p1++;
 1c4:	fe842783          	lw	a5,-24(s0)
 1c8:	00178793          	addi	a5,a5,1
 1cc:	fef42423          	sw	a5,-24(s0)
C:\Users\Catalina\Documents\Universidad\1-2\FC2\Ensamblador\practicasw2\pr5\Debug/../fun_c.c:56
        while ((p1 < ((l + r) / 2) + 1))
 1d0:	fd842703          	lw	a4,-40(s0)
 1d4:	fd442783          	lw	a5,-44(s0)
 1d8:	00f707b3          	add	a5,a4,a5
 1dc:	01f7d713          	srli	a4,a5,0x1f
 1e0:	00f707b3          	add	a5,a4,a5
 1e4:	4017d793          	srai	a5,a5,0x1
 1e8:	00078713          	mv	a4,a5
 1ec:	fe842783          	lw	a5,-24(s0)
 1f0:	faf752e3          	bge	a4,a5,194 <merge+0x148>
 1f4:	04c0006f          	j	240 <merge+0x1f4>
C:\Users\Catalina\Documents\Universidad\1-2\FC2\Ensamblador\practicasw2\pr5\Debug/../fun_c.c:66
    }
    else
    {
        while ((p2 < r + 1))
        {
            b[c++] = a[p2];
 1f8:	fe442783          	lw	a5,-28(s0)
 1fc:	00279793          	slli	a5,a5,0x2
 200:	fdc42703          	lw	a4,-36(s0)
 204:	00f70733          	add	a4,a4,a5
 208:	fec42783          	lw	a5,-20(s0)
 20c:	00178693          	addi	a3,a5,1
 210:	fed42623          	sw	a3,-20(s0)
 214:	00279793          	slli	a5,a5,0x2
 218:	fe042683          	lw	a3,-32(s0)
 21c:	00f687b3          	add	a5,a3,a5
 220:	00072703          	lw	a4,0(a4)
 224:	00e7a023          	sw	a4,0(a5)
C:\Users\Catalina\Documents\Universidad\1-2\FC2\Ensamblador\practicasw2\pr5\Debug/../fun_c.c:67
            p2++;
 228:	fe442783          	lw	a5,-28(s0)
 22c:	00178793          	addi	a5,a5,1
 230:	fef42223          	sw	a5,-28(s0)
C:\Users\Catalina\Documents\Universidad\1-2\FC2\Ensamblador\practicasw2\pr5\Debug/../fun_c.c:64
        while ((p2 < r + 1))
 234:	fd442703          	lw	a4,-44(s0)
 238:	fe442783          	lw	a5,-28(s0)
 23c:	faf75ee3          	bge	a4,a5,1f8 <merge+0x1ac>
C:\Users\Catalina\Documents\Universidad\1-2\FC2\Ensamblador\practicasw2\pr5\Debug/../fun_c.c:71
        }
    }

    for (c = l; c < r + 1; c++) a[c] = b[c];
 240:	fd842783          	lw	a5,-40(s0)
 244:	fef42623          	sw	a5,-20(s0)
 248:	0380006f          	j	280 <merge+0x234>
C:\Users\Catalina\Documents\Universidad\1-2\FC2\Ensamblador\practicasw2\pr5\Debug/../fun_c.c:71 (discriminator 3)
 24c:	fec42783          	lw	a5,-20(s0)
 250:	00279793          	slli	a5,a5,0x2
 254:	fe042703          	lw	a4,-32(s0)
 258:	00f70733          	add	a4,a4,a5
 25c:	fec42783          	lw	a5,-20(s0)
 260:	00279793          	slli	a5,a5,0x2
 264:	fdc42683          	lw	a3,-36(s0)
 268:	00f687b3          	add	a5,a3,a5
 26c:	00072703          	lw	a4,0(a4)
 270:	00e7a023          	sw	a4,0(a5)
 274:	fec42783          	lw	a5,-20(s0)
 278:	00178793          	addi	a5,a5,1
 27c:	fef42623          	sw	a5,-20(s0)
C:\Users\Catalina\Documents\Universidad\1-2\FC2\Ensamblador\practicasw2\pr5\Debug/../fun_c.c:71 (discriminator 1)
 280:	fd442703          	lw	a4,-44(s0)
 284:	fec42783          	lw	a5,-20(s0)
 288:	fcf752e3          	bge	a4,a5,24c <merge+0x200>
C:\Users\Catalina\Documents\Universidad\1-2\FC2\Ensamblador\practicasw2\pr5\Debug/../fun_c.c:74

    //free(b);
}
 28c:	00000013          	nop
 290:	00000013          	nop
 294:	02c12403          	lw	s0,44(sp)
 298:	03010113          	addi	sp,sp,48
 29c:	00008067          	ret

Disassembly of section .text.merge_sort:

000002a0 <merge_sort>:
merge_sort():
C:\Users\Catalina\Documents\Universidad\1-2\FC2\Ensamblador\practicasw2\pr5\Debug/../fun_c.c:83
 * @param n number of elements in the array
 * @param l index to sort from
 * @param r index to sort till
 */
void merge_sort(int *a, int n, int l, int r)
{
 2a0:	fe010113          	addi	sp,sp,-32
 2a4:	00112e23          	sw	ra,28(sp)
 2a8:	00812c23          	sw	s0,24(sp)
 2ac:	02010413          	addi	s0,sp,32
 2b0:	fea42623          	sw	a0,-20(s0)
 2b4:	feb42423          	sw	a1,-24(s0)
 2b8:	fec42223          	sw	a2,-28(s0)
 2bc:	fed42023          	sw	a3,-32(s0)
C:\Users\Catalina\Documents\Universidad\1-2\FC2\Ensamblador\practicasw2\pr5\Debug/../fun_c.c:84
    if (r - l == 1)
 2c0:	fe042703          	lw	a4,-32(s0)
 2c4:	fe442783          	lw	a5,-28(s0)
 2c8:	40f70733          	sub	a4,a4,a5
 2cc:	00100793          	li	a5,1
 2d0:	06f71063          	bne	a4,a5,330 <merge_sort+0x90>
C:\Users\Catalina\Documents\Universidad\1-2\FC2\Ensamblador\practicasw2\pr5\Debug/../fun_c.c:86
    {
        if (a[l] > a[r])
 2d4:	fe442783          	lw	a5,-28(s0)
 2d8:	00279793          	slli	a5,a5,0x2
 2dc:	fec42703          	lw	a4,-20(s0)
 2e0:	00f707b3          	add	a5,a4,a5
 2e4:	0007a703          	lw	a4,0(a5)
 2e8:	fe042783          	lw	a5,-32(s0)
 2ec:	00279793          	slli	a5,a5,0x2
 2f0:	fec42683          	lw	a3,-20(s0)
 2f4:	00f687b3          	add	a5,a3,a5
 2f8:	0007a783          	lw	a5,0(a5)
 2fc:	0ae7d863          	bge	a5,a4,3ac <merge_sort+0x10c>
C:\Users\Catalina\Documents\Universidad\1-2\FC2\Ensamblador\practicasw2\pr5\Debug/../fun_c.c:87
            swap(&a[l], &a[r]);
 300:	fe442783          	lw	a5,-28(s0)
 304:	00279793          	slli	a5,a5,0x2
 308:	fec42703          	lw	a4,-20(s0)
 30c:	00f706b3          	add	a3,a4,a5
 310:	fe042783          	lw	a5,-32(s0)
 314:	00279793          	slli	a5,a5,0x2
 318:	fec42703          	lw	a4,-20(s0)
 31c:	00f707b3          	add	a5,a4,a5
 320:	00078593          	mv	a1,a5
 324:	00068513          	mv	a0,a3
 328:	cd9ff0ef          	jal	ra,0 <swap>
C:\Users\Catalina\Documents\Universidad\1-2\FC2\Ensamblador\practicasw2\pr5\Debug/../fun_c.c:97
        merge_sort(a, n, ((l + r) / 2) + 1, r);
        merge(a, l, r, n);
    }

    /* no change if l == r */
}
 32c:	0800006f          	j	3ac <merge_sort+0x10c>
C:\Users\Catalina\Documents\Universidad\1-2\FC2\Ensamblador\practicasw2\pr5\Debug/../fun_c.c:89
    else if (l != r)
 330:	fe442703          	lw	a4,-28(s0)
 334:	fe042783          	lw	a5,-32(s0)
 338:	06f70a63          	beq	a4,a5,3ac <merge_sort+0x10c>
C:\Users\Catalina\Documents\Universidad\1-2\FC2\Ensamblador\practicasw2\pr5\Debug/../fun_c.c:91
        merge_sort(a, n, l, (l + r) / 2);
 33c:	fe442703          	lw	a4,-28(s0)
 340:	fe042783          	lw	a5,-32(s0)
 344:	00f707b3          	add	a5,a4,a5
 348:	01f7d713          	srli	a4,a5,0x1f
 34c:	00f707b3          	add	a5,a4,a5
 350:	4017d793          	srai	a5,a5,0x1
 354:	00078693          	mv	a3,a5
 358:	fe442603          	lw	a2,-28(s0)
 35c:	fe842583          	lw	a1,-24(s0)
 360:	fec42503          	lw	a0,-20(s0)
 364:	f3dff0ef          	jal	ra,2a0 <merge_sort>
C:\Users\Catalina\Documents\Universidad\1-2\FC2\Ensamblador\practicasw2\pr5\Debug/../fun_c.c:92
        merge_sort(a, n, ((l + r) / 2) + 1, r);
 368:	fe442703          	lw	a4,-28(s0)
 36c:	fe042783          	lw	a5,-32(s0)
 370:	00f707b3          	add	a5,a4,a5
 374:	01f7d713          	srli	a4,a5,0x1f
 378:	00f707b3          	add	a5,a4,a5
 37c:	4017d793          	srai	a5,a5,0x1
 380:	00178793          	addi	a5,a5,1
 384:	fe042683          	lw	a3,-32(s0)
 388:	00078613          	mv	a2,a5
 38c:	fe842583          	lw	a1,-24(s0)
 390:	fec42503          	lw	a0,-20(s0)
 394:	f0dff0ef          	jal	ra,2a0 <merge_sort>
C:\Users\Catalina\Documents\Universidad\1-2\FC2\Ensamblador\practicasw2\pr5\Debug/../fun_c.c:93
        merge(a, l, r, n);
 398:	fe842683          	lw	a3,-24(s0)
 39c:	fe042603          	lw	a2,-32(s0)
 3a0:	fe442583          	lw	a1,-28(s0)
 3a4:	fec42503          	lw	a0,-20(s0)
 3a8:	ca5ff0ef          	jal	ra,4c <merge>
C:\Users\Catalina\Documents\Universidad\1-2\FC2\Ensamblador\practicasw2\pr5\Debug/../fun_c.c:97
}
 3ac:	00000013          	nop
 3b0:	01c12083          	lw	ra,28(sp)
 3b4:	01812403          	lw	s0,24(sp)
 3b8:	02010113          	addi	sp,sp,32
 3bc:	00008067          	ret

Disassembly of section .text.main:

000003c0 <main>:
main():
C:\Users\Catalina\Documents\Universidad\1-2\FC2\Ensamblador\practicasw2\pr5\Debug/../fun_c.c:102
/** @} */

/** Main function */
int main(void)
{
 3c0:	fe010113          	addi	sp,sp,-32
 3c4:	00112e23          	sw	ra,28(sp)
 3c8:	00812c23          	sw	s0,24(sp)
 3cc:	02010413          	addi	s0,sp,32
C:\Users\Catalina\Documents\Universidad\1-2\FC2\Ensamblador\practicasw2\pr5\Debug/../fun_c.c:104

	int *a= {3, 5, -1, 9, 7, 4, 8};
 3d0:	00300793          	li	a5,3
 3d4:	fef42623          	sw	a5,-20(s0)
C:\Users\Catalina\Documents\Universidad\1-2\FC2\Ensamblador\practicasw2\pr5\Debug/../fun_c.c:105
	int n=7;
 3d8:	00700793          	li	a5,7
 3dc:	fef42423          	sw	a5,-24(s0)
C:\Users\Catalina\Documents\Universidad\1-2\FC2\Ensamblador\practicasw2\pr5\Debug/../fun_c.c:106
	int i=0;
 3e0:	fe042223          	sw	zero,-28(s0)
C:\Users\Catalina\Documents\Universidad\1-2\FC2\Ensamblador\practicasw2\pr5\Debug/../fun_c.c:109


    merge_sort(a, n, 0, n - 1);
 3e4:	fe842783          	lw	a5,-24(s0)
 3e8:	fff78793          	addi	a5,a5,-1
 3ec:	00078693          	mv	a3,a5
 3f0:	00000613          	li	a2,0
 3f4:	fe842583          	lw	a1,-24(s0)
 3f8:	fec42503          	lw	a0,-20(s0)
 3fc:	ea5ff0ef          	jal	ra,2a0 <merge_sort>
C:\Users\Catalina\Documents\Universidad\1-2\FC2\Ensamblador\practicasw2\pr5\Debug/../fun_c.c:112


    return 0;
 400:	00000793          	li	a5,0
C:\Users\Catalina\Documents\Universidad\1-2\FC2\Ensamblador\practicasw2\pr5\Debug/../fun_c.c:113
}
 404:	00078513          	mv	a0,a5
 408:	01c12083          	lw	ra,28(sp)
 40c:	01812403          	lw	s0,24(sp)
 410:	02010113          	addi	sp,sp,32
 414:	00008067          	ret
